
basic-passwdcheck-CW308_STM32F4.elf:     file format elf32-littlearm

Sections:
Idx Name          Size      VMA       LMA       File off  Algn
  0 .isr_vector   00000188  08000000  08000000  00010000  2**0
                  CONTENTS, ALLOC, LOAD, READONLY, DATA
  1 .text         00000d6c  08000188  08000188  00010188  2**2
                  CONTENTS, ALLOC, LOAD, READONLY, CODE
  2 .rodata       00000120  08000ef4  08000ef4  00010ef4  2**2
                  CONTENTS, ALLOC, LOAD, READONLY, DATA
  3 .ARM.extab    00000000  08001014  08001014  00020430  2**0
                  CONTENTS
  4 .ARM          00000000  08001014  08001014  00020430  2**0
                  CONTENTS
  5 .preinit_array 00000000  08001014  08001014  00020430  2**0
                  CONTENTS, ALLOC, LOAD, DATA
  6 .init_array   00000008  08001014  08001014  00011014  2**2
                  CONTENTS, ALLOC, LOAD, DATA
  7 .fini_array   00000004  0800101c  0800101c  0001101c  2**2
                  CONTENTS, ALLOC, LOAD, DATA
  8 .data         00000430  20000000  08001020  00020000  2**3
                  CONTENTS, ALLOC, LOAD, DATA
  9 .bss          000000bc  20000430  08001450  00020430  2**2
                  ALLOC
 10 ._user_heap_stack 00000404  200004ec  08001450  000204ec  2**0
                  ALLOC
 11 .ARM.attributes 0000002a  00000000  00000000  00020430  2**0
                  CONTENTS, READONLY
 12 .comment      00000033  00000000  00000000  0002045a  2**0
                  CONTENTS, READONLY
 13 .debug_info   00005e4d  00000000  00000000  0002048d  2**0
                  CONTENTS, READONLY, DEBUGGING, OCTETS
 14 .debug_abbrev 0000140b  00000000  00000000  000262da  2**0
                  CONTENTS, READONLY, DEBUGGING, OCTETS
 15 .debug_loc    00002017  00000000  00000000  000276e5  2**0
                  CONTENTS, READONLY, DEBUGGING, OCTETS
 16 .debug_aranges 00000290  00000000  00000000  000296fc  2**0
                  CONTENTS, READONLY, DEBUGGING, OCTETS
 17 .debug_ranges 00000450  00000000  00000000  0002998c  2**0
                  CONTENTS, READONLY, DEBUGGING, OCTETS
 18 .debug_line   000028f8  00000000  00000000  00029ddc  2**0
                  CONTENTS, READONLY, DEBUGGING, OCTETS
 19 .debug_str    0000189f  00000000  00000000  0002c6d4  2**0
                  CONTENTS, READONLY, DEBUGGING, OCTETS
 20 .debug_frame  000005d4  00000000  00000000  0002df74  2**2
                  CONTENTS, READONLY, DEBUGGING, OCTETS
 21 .stab         00000144  00000000  00000000  0002e548  2**2
                  CONTENTS, READONLY, DEBUGGING
 22 .stabstr      00000034  00000000  00000000  0002e68c  2**0
                  CONTENTS, READONLY, DEBUGGING

Disassembly of section .text:

08000188 <deregister_tm_clones>:
 8000188:	4803      	ldr	r0, [pc, #12]	; (8000198 <deregister_tm_clones+0x10>)
 800018a:	4b04      	ldr	r3, [pc, #16]	; (800019c <deregister_tm_clones+0x14>)
 800018c:	4283      	cmp	r3, r0
 800018e:	d002      	beq.n	8000196 <deregister_tm_clones+0xe>
 8000190:	4b03      	ldr	r3, [pc, #12]	; (80001a0 <deregister_tm_clones+0x18>)
 8000192:	b103      	cbz	r3, 8000196 <deregister_tm_clones+0xe>
 8000194:	4718      	bx	r3
 8000196:	4770      	bx	lr
 8000198:	20000430 	.word	0x20000430
 800019c:	20000430 	.word	0x20000430
 80001a0:	00000000 	.word	0x00000000

080001a4 <register_tm_clones>:
 80001a4:	4805      	ldr	r0, [pc, #20]	; (80001bc <register_tm_clones+0x18>)
 80001a6:	4906      	ldr	r1, [pc, #24]	; (80001c0 <register_tm_clones+0x1c>)
 80001a8:	1a0b      	subs	r3, r1, r0
 80001aa:	0fd9      	lsrs	r1, r3, #31
 80001ac:	eb01 01a3 	add.w	r1, r1, r3, asr #2
 80001b0:	1049      	asrs	r1, r1, #1
 80001b2:	d002      	beq.n	80001ba <register_tm_clones+0x16>
 80001b4:	4b03      	ldr	r3, [pc, #12]	; (80001c4 <register_tm_clones+0x20>)
 80001b6:	b103      	cbz	r3, 80001ba <register_tm_clones+0x16>
 80001b8:	4718      	bx	r3
 80001ba:	4770      	bx	lr
 80001bc:	20000430 	.word	0x20000430
 80001c0:	20000430 	.word	0x20000430
 80001c4:	00000000 	.word	0x00000000

080001c8 <__do_global_dtors_aux>:
 80001c8:	b510      	push	{r4, lr}
 80001ca:	4c06      	ldr	r4, [pc, #24]	; (80001e4 <__do_global_dtors_aux+0x1c>)
 80001cc:	7823      	ldrb	r3, [r4, #0]
 80001ce:	b943      	cbnz	r3, 80001e2 <__do_global_dtors_aux+0x1a>
 80001d0:	f7ff ffda 	bl	8000188 <deregister_tm_clones>
 80001d4:	4b04      	ldr	r3, [pc, #16]	; (80001e8 <__do_global_dtors_aux+0x20>)
 80001d6:	b113      	cbz	r3, 80001de <__do_global_dtors_aux+0x16>
 80001d8:	4804      	ldr	r0, [pc, #16]	; (80001ec <__do_global_dtors_aux+0x24>)
 80001da:	f3af 8000 	nop.w
 80001de:	2301      	movs	r3, #1
 80001e0:	7023      	strb	r3, [r4, #0]
 80001e2:	bd10      	pop	{r4, pc}
 80001e4:	20000430 	.word	0x20000430
 80001e8:	00000000 	.word	0x00000000
 80001ec:	08000edc 	.word	0x08000edc

080001f0 <frame_dummy>:
 80001f0:	b508      	push	{r3, lr}
 80001f2:	4b04      	ldr	r3, [pc, #16]	; (8000204 <frame_dummy+0x14>)
 80001f4:	b11b      	cbz	r3, 80001fe <frame_dummy+0xe>
 80001f6:	4904      	ldr	r1, [pc, #16]	; (8000208 <frame_dummy+0x18>)
 80001f8:	4804      	ldr	r0, [pc, #16]	; (800020c <frame_dummy+0x1c>)
 80001fa:	f3af 8000 	nop.w
 80001fe:	e8bd 4008 	ldmia.w	sp!, {r3, lr}
 8000202:	e7cf      	b.n	80001a4 <register_tm_clones>
 8000204:	00000000 	.word	0x00000000
 8000208:	20000434 	.word	0x20000434
 800020c:	08000edc 	.word	0x08000edc

08000210 <atexit>:
 8000210:	2300      	movs	r3, #0
 8000212:	4601      	mov	r1, r0
 8000214:	461a      	mov	r2, r3
 8000216:	4618      	mov	r0, r3
 8000218:	f000 b83a 	b.w	8000290 <__register_exitproc>

0800021c <__libc_fini_array>:
 800021c:	b538      	push	{r3, r4, r5, lr}
 800021e:	4b08      	ldr	r3, [pc, #32]	; (8000240 <__libc_fini_array+0x24>)
 8000220:	4d08      	ldr	r5, [pc, #32]	; (8000244 <__libc_fini_array+0x28>)
 8000222:	1b5b      	subs	r3, r3, r5
 8000224:	109c      	asrs	r4, r3, #2
 8000226:	d007      	beq.n	8000238 <__libc_fini_array+0x1c>
 8000228:	3b04      	subs	r3, #4
 800022a:	441d      	add	r5, r3
 800022c:	3c01      	subs	r4, #1
 800022e:	f855 3904 	ldr.w	r3, [r5], #-4
 8000232:	4798      	blx	r3
 8000234:	2c00      	cmp	r4, #0
 8000236:	d1f9      	bne.n	800022c <__libc_fini_array+0x10>
 8000238:	e8bd 4038 	ldmia.w	sp!, {r3, r4, r5, lr}
 800023c:	f000 be54 	b.w	8000ee8 <_fini>
 8000240:	08001020 	.word	0x08001020
 8000244:	0800101c 	.word	0x0800101c

08000248 <__libc_init_array>:
 8000248:	b570      	push	{r4, r5, r6, lr}
 800024a:	4e0d      	ldr	r6, [pc, #52]	; (8000280 <__libc_init_array+0x38>)
 800024c:	4d0d      	ldr	r5, [pc, #52]	; (8000284 <__libc_init_array+0x3c>)
 800024e:	1b76      	subs	r6, r6, r5
 8000250:	10b6      	asrs	r6, r6, #2
 8000252:	d006      	beq.n	8000262 <__libc_init_array+0x1a>
 8000254:	2400      	movs	r4, #0
 8000256:	f855 3b04 	ldr.w	r3, [r5], #4
 800025a:	3401      	adds	r4, #1
 800025c:	4798      	blx	r3
 800025e:	42a6      	cmp	r6, r4
 8000260:	d1f9      	bne.n	8000256 <__libc_init_array+0xe>
 8000262:	4e09      	ldr	r6, [pc, #36]	; (8000288 <__libc_init_array+0x40>)
 8000264:	4d09      	ldr	r5, [pc, #36]	; (800028c <__libc_init_array+0x44>)
 8000266:	1b76      	subs	r6, r6, r5
 8000268:	f000 fe38 	bl	8000edc <_init>
 800026c:	10b6      	asrs	r6, r6, #2
 800026e:	d006      	beq.n	800027e <__libc_init_array+0x36>
 8000270:	2400      	movs	r4, #0
 8000272:	f855 3b04 	ldr.w	r3, [r5], #4
 8000276:	3401      	adds	r4, #1
 8000278:	4798      	blx	r3
 800027a:	42a6      	cmp	r6, r4
 800027c:	d1f9      	bne.n	8000272 <__libc_init_array+0x2a>
 800027e:	bd70      	pop	{r4, r5, r6, pc}
 8000280:	08001014 	.word	0x08001014
 8000284:	08001014 	.word	0x08001014
 8000288:	0800101c 	.word	0x0800101c
 800028c:	08001014 	.word	0x08001014

08000290 <__register_exitproc>:
 8000290:	b470      	push	{r4, r5, r6}
 8000292:	4c18      	ldr	r4, [pc, #96]	; (80002f4 <__register_exitproc+0x64>)
 8000294:	6825      	ldr	r5, [r4, #0]
 8000296:	f8d5 4148 	ldr.w	r4, [r5, #328]	; 0x148
 800029a:	b31c      	cbz	r4, 80002e4 <__register_exitproc+0x54>
 800029c:	6865      	ldr	r5, [r4, #4]
 800029e:	2d1f      	cmp	r5, #31
 80002a0:	dc25      	bgt.n	80002ee <__register_exitproc+0x5e>
 80002a2:	b938      	cbnz	r0, 80002b4 <__register_exitproc+0x24>
 80002a4:	1cab      	adds	r3, r5, #2
 80002a6:	3501      	adds	r5, #1
 80002a8:	6065      	str	r5, [r4, #4]
 80002aa:	f844 1023 	str.w	r1, [r4, r3, lsl #2]
 80002ae:	2000      	movs	r0, #0
 80002b0:	bc70      	pop	{r4, r5, r6}
 80002b2:	4770      	bx	lr
 80002b4:	eb04 0c85 	add.w	ip, r4, r5, lsl #2
 80002b8:	2802      	cmp	r0, #2
 80002ba:	f8cc 2088 	str.w	r2, [ip, #136]	; 0x88
 80002be:	f8d4 6188 	ldr.w	r6, [r4, #392]	; 0x188
 80002c2:	f04f 0201 	mov.w	r2, #1
 80002c6:	fa02 f205 	lsl.w	r2, r2, r5
 80002ca:	ea46 0602 	orr.w	r6, r6, r2
 80002ce:	f8c4 6188 	str.w	r6, [r4, #392]	; 0x188
 80002d2:	f8cc 3108 	str.w	r3, [ip, #264]	; 0x108
 80002d6:	d1e5      	bne.n	80002a4 <__register_exitproc+0x14>
 80002d8:	f8d4 318c 	ldr.w	r3, [r4, #396]	; 0x18c
 80002dc:	4313      	orrs	r3, r2
 80002de:	f8c4 318c 	str.w	r3, [r4, #396]	; 0x18c
 80002e2:	e7df      	b.n	80002a4 <__register_exitproc+0x14>
 80002e4:	f505 74a6 	add.w	r4, r5, #332	; 0x14c
 80002e8:	f8c5 4148 	str.w	r4, [r5, #328]	; 0x148
 80002ec:	e7d6      	b.n	800029c <__register_exitproc+0xc>
 80002ee:	f04f 30ff 	mov.w	r0, #4294967295	; 0xffffffff
 80002f2:	e7dd      	b.n	80002b0 <__register_exitproc+0x20>
 80002f4:	08000ef4 	.word	0x08000ef4

080002f8 <delay_2_ms>:

  } while (*++c);
}

static void delay_2_ms()
{
 80002f8:	b082      	sub	sp, #8
  for (volatile unsigned int i=0; i < 0xfff; i++ ){
 80002fa:	2300      	movs	r3, #0
 80002fc:	9301      	str	r3, [sp, #4]
 80002fe:	f640 72fe 	movw	r2, #4094	; 0xffe
 8000302:	9b01      	ldr	r3, [sp, #4]
 8000304:	4293      	cmp	r3, r2
 8000306:	d901      	bls.n	800030c <delay_2_ms+0x14>
    ;
  }
}
 8000308:	b002      	add	sp, #8
 800030a:	4770      	bx	lr
  for (volatile unsigned int i=0; i < 0xfff; i++ ){
 800030c:	9b01      	ldr	r3, [sp, #4]
 800030e:	3301      	adds	r3, #1
 8000310:	9301      	str	r3, [sp, #4]
 8000312:	e7f6      	b.n	8000302 <delay_2_ms+0xa>

08000314 <led_ok>:
    
#endif

__attribute__((weak)) void led_ok(unsigned int status)
{
}
 8000314:	4770      	bx	lr

08000316 <led_error>:
 8000316:	4770      	bx	lr

08000318 <my_puts>:
{
 8000318:	b510      	push	{r4, lr}
 800031a:	4604      	mov	r4, r0
    putch(*c);
 800031c:	7820      	ldrb	r0, [r4, #0]
 800031e:	f000 f951 	bl	80005c4 <putch>
  } while (*++c);
 8000322:	f814 3f01 	ldrb.w	r3, [r4, #1]!
 8000326:	2b00      	cmp	r3, #0
 8000328:	d1f8      	bne.n	800031c <my_puts+0x4>
}
 800032a:	bd10      	pop	{r4, pc}

0800032c <my_read>:

void my_read(char *buf, int len)
{
 800032c:	b5f8      	push	{r3, r4, r5, r6, r7, lr}
 800032e:	4604      	mov	r4, r0
 8000330:	460e      	mov	r6, r1
  for(int i = 0; i < len; i++) {
 8000332:	2500      	movs	r5, #0
 8000334:	42b5      	cmp	r5, r6
 8000336:	da0c      	bge.n	8000352 <my_read+0x26>
 8000338:	1967      	adds	r7, r4, r5
    while (buf[i] = getch(), buf[i] == '\0');
 800033a:	f000 f931 	bl	80005a0 <getch>
 800033e:	5560      	strb	r0, [r4, r5]
 8000340:	2800      	cmp	r0, #0
 8000342:	d0fa      	beq.n	800033a <my_read+0xe>

    if (buf[i] == '\n') {
 8000344:	280a      	cmp	r0, #10
 8000346:	d102      	bne.n	800034e <my_read+0x22>
      buf[i] = '\0';
 8000348:	2300      	movs	r3, #0
 800034a:	703b      	strb	r3, [r7, #0]
      return;
    }
  }
  buf[len - 1] = '\0';
}
 800034c:	bdf8      	pop	{r3, r4, r5, r6, r7, pc}
  for(int i = 0; i < len; i++) {
 800034e:	3501      	adds	r5, #1
 8000350:	e7f0      	b.n	8000334 <my_read+0x8>
  buf[len - 1] = '\0';
 8000352:	4434      	add	r4, r6
 8000354:	2300      	movs	r3, #0
 8000356:	f804 3c01 	strb.w	r3, [r4, #-1]
 800035a:	e7f7      	b.n	800034c <my_read+0x20>

0800035c <main>:

int main(void)
  {
 800035c:	b510      	push	{r4, lr}
 800035e:	b08c      	sub	sp, #48	; 0x30
    platform_init();
 8000360:	f000 f870 	bl	8000444 <platform_init>
  init_uart();
 8000364:	f000 f8ae 	bl	80004c4 <init_uart>
  trigger_setup();
 8000368:	f000 f8ea 	bl	8000540 <trigger_setup>

    char passwd[32];
    char correct_passwd[] = "h0px3";
 800036c:	4b2a      	ldr	r3, [pc, #168]	; (8000418 <main+0xbc>)
 800036e:	6818      	ldr	r0, [r3, #0]
 8000370:	9002      	str	r0, [sp, #8]
 8000372:	889b      	ldrh	r3, [r3, #4]

  while(1){

        my_puts("*****Safe-o-matic 3000 Booting...\n");
 8000374:	4829      	ldr	r0, [pc, #164]	; (800041c <main+0xc0>)
    char correct_passwd[] = "h0px3";
 8000376:	f8ad 300c 	strh.w	r3, [sp, #12]
        my_puts("*****Safe-o-matic 3000 Booting...\n");
 800037a:	f7ff ffcd 	bl	8000318 <my_puts>
        //Print some fancy-sounding stuff so that attackers
        //will get scared and leave us alone
        my_puts("Aligning bits........[DONE]\n");
 800037e:	4828      	ldr	r0, [pc, #160]	; (8000420 <main+0xc4>)
 8000380:	f7ff ffca 	bl	8000318 <my_puts>
        delay_2_ms();
        my_puts("Checking Cesium RNG..[DONE]\n");
 8000384:	4827      	ldr	r0, [pc, #156]	; (8000424 <main+0xc8>)
        delay_2_ms();
 8000386:	f7ff ffb7 	bl	80002f8 <delay_2_ms>
        my_puts("Checking Cesium RNG..[DONE]\n");
 800038a:	f7ff ffc5 	bl	8000318 <my_puts>
        delay_2_ms();
        my_puts("Masquerading flash...[DONE]\n");
 800038e:	4826      	ldr	r0, [pc, #152]	; (8000428 <main+0xcc>)
        delay_2_ms();
 8000390:	f7ff ffb2 	bl	80002f8 <delay_2_ms>
        my_puts("Masquerading flash...[DONE]\n");
 8000394:	f7ff ffc0 	bl	8000318 <my_puts>
        delay_2_ms();
        my_puts("Decrypting database..[DONE]\n");
 8000398:	4824      	ldr	r0, [pc, #144]	; (800042c <main+0xd0>)
        delay_2_ms();
 800039a:	f7ff ffad 	bl	80002f8 <delay_2_ms>
        my_puts("Decrypting database..[DONE]\n");
 800039e:	f7ff ffbb 	bl	8000318 <my_puts>
        delay_2_ms();
        my_puts("\n\n");
 80003a2:	4823      	ldr	r0, [pc, #140]	; (8000430 <main+0xd4>)
        delay_2_ms();
 80003a4:	f7ff ffa8 	bl	80002f8 <delay_2_ms>
        my_puts("\n\n");
 80003a8:	f7ff ffb6 	bl	8000318 <my_puts>

        //Give them one last warning
        my_puts("WARNING: UNAUTHORIZED ACCESS WILL BE PUNISHED\n");
 80003ac:	4821      	ldr	r0, [pc, #132]	; (8000434 <main+0xd8>)
 80003ae:	f7ff ffb3 	bl	8000318 <my_puts>

        trigger_low();
 80003b2:	f000 f8ed 	bl	8000590 <trigger_low>

        //Get password
        my_puts("Please enter password to continue: ");
 80003b6:	4820      	ldr	r0, [pc, #128]	; (8000438 <main+0xdc>)
 80003b8:	f7ff ffae 	bl	8000318 <my_puts>
        my_read(passwd, 32);
 80003bc:	2120      	movs	r1, #32
 80003be:	a804      	add	r0, sp, #16
 80003c0:	f7ff ffb4 	bl	800032c <my_read>

        uint8_t passbad = 0;

        trigger_high();
 80003c4:	f000 f8dc 	bl	8000580 <trigger_high>

        for(uint8_t i = 0; i < sizeof(correct_passwd); i++){
 80003c8:	a902      	add	r1, sp, #8
 80003ca:	aa04      	add	r2, sp, #16
        trigger_high();
 80003cc:	2306      	movs	r3, #6
            if (correct_passwd[i] != passwd[i]){
 80003ce:	f811 4b01 	ldrb.w	r4, [r1], #1
 80003d2:	f812 0b01 	ldrb.w	r0, [r2], #1
 80003d6:	4284      	cmp	r4, r0
 80003d8:	d11b      	bne.n	8000412 <main+0xb6>
        for(uint8_t i = 0; i < sizeof(correct_passwd); i++){
 80003da:	3b01      	subs	r3, #1
 80003dc:	f013 03ff 	ands.w	r3, r3, #255	; 0xff
 80003e0:	d1f5      	bne.n	80003ce <main+0x72>
            delay_2_ms();
            delay_2_ms();
            my_puts("PASSWORD FAIL\n");
            led_error(1);
        } else {
            my_puts("Access granted, Welcome!\n");
 80003e2:	4816      	ldr	r0, [pc, #88]	; (800043c <main+0xe0>)
 80003e4:	f7ff ff98 	bl	8000318 <my_puts>
            led_ok(1);
 80003e8:	2001      	movs	r0, #1
 80003ea:	f7ff ff93 	bl	8000314 <led_ok>
 80003ee:	e00f      	b.n	8000410 <main+0xb4>
            for(volatile int i = 0; i < wait; i++){
 80003f0:	9b01      	ldr	r3, [sp, #4]
 80003f2:	3301      	adds	r3, #1
 80003f4:	9301      	str	r3, [sp, #4]
 80003f6:	9b01      	ldr	r3, [sp, #4]
 80003f8:	2b00      	cmp	r3, #0
 80003fa:	ddf9      	ble.n	80003f0 <main+0x94>
            my_puts("PASSWORD FAIL\n");
 80003fc:	4810      	ldr	r0, [pc, #64]	; (8000440 <main+0xe4>)
            delay_2_ms();
 80003fe:	f7ff ff7b 	bl	80002f8 <delay_2_ms>
            delay_2_ms();
 8000402:	f7ff ff79 	bl	80002f8 <delay_2_ms>
            my_puts("PASSWORD FAIL\n");
 8000406:	f7ff ff87 	bl	8000318 <my_puts>
            led_error(1);
 800040a:	2001      	movs	r0, #1
 800040c:	f7ff ff83 	bl	8000316 <led_error>
        }

        //All done;
        while(1);
 8000410:	e7fe      	b.n	8000410 <main+0xb4>
            for(volatile int i = 0; i < wait; i++){
 8000412:	2300      	movs	r3, #0
 8000414:	e7ee      	b.n	80003f4 <main+0x98>
 8000416:	bf00      	nop
 8000418:	0800100e 	.word	0x0800100e
 800041c:	08000ef8 	.word	0x08000ef8
 8000420:	08000f1b 	.word	0x08000f1b
 8000424:	08000f38 	.word	0x08000f38
 8000428:	08000f55 	.word	0x08000f55
 800042c:	08000f72 	.word	0x08000f72
 8000430:	08000f8f 	.word	0x08000f8f
 8000434:	08000f92 	.word	0x08000f92
 8000438:	08000fc1 	.word	0x08000fc1
 800043c:	08000ff4 	.word	0x08000ff4
 8000440:	08000fe5 	.word	0x08000fe5

08000444 <platform_init>:

uint8_t hw_key[16];
static CRYP_HandleTypeDef cryp;

void platform_init(void)
{
 8000444:	b530      	push	{r4, r5, lr}
    FLASH->ACR |= 0b111 << 8; //enable ART acceleration

#else
	RCC_OscInitTypeDef RCC_OscInitStruct;
	RCC_OscInitStruct.OscillatorType = RCC_OSCILLATORTYPE_HSE | RCC_OSCILLATORTYPE_HSI;
	RCC_OscInitStruct.HSEState       = RCC_HSE_BYPASS;
 8000446:	2203      	movs	r2, #3
{
 8000448:	b093      	sub	sp, #76	; 0x4c
	RCC_OscInitStruct.HSEState       = RCC_HSE_BYPASS;
 800044a:	f44f 23a0 	mov.w	r3, #327680	; 0x50000
 800044e:	e9cd 2306 	strd	r2, r3, [sp, #24]
	RCC_OscInitStruct.HSIState       = RCC_HSI_ON;  // HSI is needed for the RNG
	RCC_OscInitStruct.PLL.PLLState   = RCC_PLL_ON;  // we need PLL to use RNG
	RCC_OscInitStruct.PLL.PLLSource  = RCC_PLLSOURCE_HSE;
 8000452:	2102      	movs	r1, #2
 8000454:	f44f 0380 	mov.w	r3, #4194304	; 0x400000
 8000458:	e9cd 130c 	strd	r1, r3, [sp, #48]	; 0x30
	RCC_OscInitStruct.PLL.PLLM       = 12;  // Internal clock is 16MHz
	RCC_OscInitStruct.PLL.PLLN       = 196;
 800045c:	200c      	movs	r0, #12
 800045e:	23c4      	movs	r3, #196	; 0xc4
 8000460:	e9cd 030e 	strd	r0, r3, [sp, #56]	; 0x38
	RCC_OscInitStruct.PLL.PLLP       = RCC_PLLP_DIV4;
	RCC_OscInitStruct.PLL.PLLQ       = 7;  // divisor for RNG, USB and SDIO
 8000464:	2404      	movs	r4, #4
 8000466:	2307      	movs	r3, #7
	RCC_OscInitStruct.HSIState       = RCC_HSI_ON;  // HSI is needed for the RNG
 8000468:	2501      	movs	r5, #1
	if (HAL_RCC_OscConfig(&RCC_OscInitStruct) != HAL_OK) {
 800046a:	a806      	add	r0, sp, #24
	RCC_OscInitStruct.PLL.PLLQ       = 7;  // divisor for RNG, USB and SDIO
 800046c:	e9cd 4310 	strd	r4, r3, [sp, #64]	; 0x40
	RCC_OscInitStruct.HSIState       = RCC_HSI_ON;  // HSI is needed for the RNG
 8000470:	9509      	str	r5, [sp, #36]	; 0x24
	if (HAL_RCC_OscConfig(&RCC_OscInitStruct) != HAL_OK) {
 8000472:	f000 f8bf 	bl	80005f4 <HAL_RCC_OscConfig>
 8000476:	4604      	mov	r4, r0
 8000478:	b100      	cbz	r0, 800047c <platform_init+0x38>
        for(;;);
 800047a:	e7fe      	b.n	800047a <platform_init+0x36>
	RCC_ClkInitStruct.ClockType      = (RCC_CLOCKTYPE_SYSCLK | RCC_CLOCKTYPE_HCLK | RCC_CLOCKTYPE_PCLK1 | RCC_CLOCKTYPE_PCLK2);
	RCC_ClkInitStruct.SYSCLKSource   = RCC_SYSCLKSOURCE_HSE;
	RCC_ClkInitStruct.AHBCLKDivider  = RCC_SYSCLK_DIV1;
	RCC_ClkInitStruct.APB1CLKDivider = RCC_HCLK_DIV1;
	RCC_ClkInitStruct.APB2CLKDivider = RCC_HCLK_DIV1;
	HAL_RCC_ClockConfig(&RCC_ClkInitStruct, FLASH_ACR_LATENCY_0WS); //wait states not needed for HSE
 800047c:	4601      	mov	r1, r0
	RCC_ClkInitStruct.APB1CLKDivider = RCC_HCLK_DIV1;
 800047e:	e9cd 0003 	strd	r0, r0, [sp, #12]
	RCC_ClkInitStruct.ClockType      = (RCC_CLOCKTYPE_SYSCLK | RCC_CLOCKTYPE_HCLK | RCC_CLOCKTYPE_PCLK1 | RCC_CLOCKTYPE_PCLK2);
 8000482:	230f      	movs	r3, #15
	RCC_ClkInitStruct.APB2CLKDivider = RCC_HCLK_DIV1;
 8000484:	9005      	str	r0, [sp, #20]
	HAL_RCC_ClockConfig(&RCC_ClkInitStruct, FLASH_ACR_LATENCY_0WS); //wait states not needed for HSE
 8000486:	a801      	add	r0, sp, #4
	RCC_ClkInitStruct.SYSCLKSource   = RCC_SYSCLKSOURCE_HSE;
 8000488:	e9cd 3501 	strd	r3, r5, [sp, #4]
	HAL_RCC_ClockConfig(&RCC_ClkInitStruct, FLASH_ACR_LATENCY_0WS); //wait states not needed for HSE
 800048c:	f000 fa52 	bl	8000934 <HAL_RCC_ClockConfig>
#endif

	// Configure and starts the RNG
	__HAL_RCC_RNG_CLK_ENABLE();
 8000490:	4b09      	ldr	r3, [pc, #36]	; (80004b8 <platform_init+0x74>)
 8000492:	9400      	str	r4, [sp, #0]
 8000494:	6b5a      	ldr	r2, [r3, #52]	; 0x34
	RngHandle.Instance = RNG;
 8000496:	4809      	ldr	r0, [pc, #36]	; (80004bc <platform_init+0x78>)
	__HAL_RCC_RNG_CLK_ENABLE();
 8000498:	f042 0240 	orr.w	r2, r2, #64	; 0x40
 800049c:	635a      	str	r2, [r3, #52]	; 0x34
 800049e:	6b5b      	ldr	r3, [r3, #52]	; 0x34
 80004a0:	f003 0340 	and.w	r3, r3, #64	; 0x40
 80004a4:	9300      	str	r3, [sp, #0]
 80004a6:	9b00      	ldr	r3, [sp, #0]
	RngHandle.Instance = RNG;
 80004a8:	4b05      	ldr	r3, [pc, #20]	; (80004c0 <platform_init+0x7c>)
 80004aa:	6003      	str	r3, [r0, #0]
	RngHandle.State = HAL_RNG_STATE_RESET;
 80004ac:	7144      	strb	r4, [r0, #5]
	HAL_RNG_Init(&RngHandle);
 80004ae:	f000 fcc7 	bl	8000e40 <HAL_RNG_Init>

}
 80004b2:	b013      	add	sp, #76	; 0x4c
 80004b4:	bd30      	pop	{r4, r5, pc}
 80004b6:	bf00      	nop
 80004b8:	40023800 	.word	0x40023800
 80004bc:	2000044c 	.word	0x2000044c
 80004c0:	50060800 	.word	0x50060800

080004c4 <init_uart>:

void init_uart(void)
{
 80004c4:	b530      	push	{r4, r5, lr}
	GPIO_InitTypeDef GpioInit;
	GpioInit.Pin       = GPIO_PIN_9 | GPIO_PIN_10;
	GpioInit.Mode      = GPIO_MODE_AF_PP;
 80004c6:	2302      	movs	r3, #2
{
 80004c8:	b089      	sub	sp, #36	; 0x24
	GpioInit.Mode      = GPIO_MODE_AF_PP;
 80004ca:	f44f 62c0 	mov.w	r2, #1536	; 0x600
 80004ce:	e9cd 2303 	strd	r2, r3, [sp, #12]
	GpioInit.Pull      = GPIO_PULLUP;
 80004d2:	2201      	movs	r2, #1
	GpioInit.Speed     = GPIO_SPEED_FREQ_HIGH;
 80004d4:	e9cd 2305 	strd	r2, r3, [sp, #20]
	GpioInit.Alternate = GPIO_AF7_USART1;
	__GPIOA_CLK_ENABLE();
 80004d8:	4c15      	ldr	r4, [pc, #84]	; (8000530 <init_uart+0x6c>)
	HAL_GPIO_Init(GPIOA, &GpioInit);
 80004da:	4816      	ldr	r0, [pc, #88]	; (8000534 <init_uart+0x70>)
	__GPIOA_CLK_ENABLE();
 80004dc:	2500      	movs	r5, #0
	GpioInit.Alternate = GPIO_AF7_USART1;
 80004de:	2307      	movs	r3, #7
	__GPIOA_CLK_ENABLE();
 80004e0:	9501      	str	r5, [sp, #4]
	GpioInit.Alternate = GPIO_AF7_USART1;
 80004e2:	9307      	str	r3, [sp, #28]
	__GPIOA_CLK_ENABLE();
 80004e4:	6b23      	ldr	r3, [r4, #48]	; 0x30
 80004e6:	4313      	orrs	r3, r2
 80004e8:	6323      	str	r3, [r4, #48]	; 0x30
 80004ea:	6b23      	ldr	r3, [r4, #48]	; 0x30
 80004ec:	4013      	ands	r3, r2
 80004ee:	9301      	str	r3, [sp, #4]
	HAL_GPIO_Init(GPIOA, &GpioInit);
 80004f0:	a903      	add	r1, sp, #12
	__GPIOA_CLK_ENABLE();
 80004f2:	9b01      	ldr	r3, [sp, #4]
	HAL_GPIO_Init(GPIOA, &GpioInit);
 80004f4:	f000 fab6 	bl	8000a64 <HAL_GPIO_Init>

	UartHandle.Instance        = USART1;
 80004f8:	480f      	ldr	r0, [pc, #60]	; (8000538 <init_uart+0x74>)
  #if SS_VER==SS_VER_2_1
  UartHandle.Init.BaudRate   = 230400;
 80004fa:	4910      	ldr	r1, [pc, #64]	; (800053c <init_uart+0x78>)
	UartHandle.Init.WordLength = UART_WORDLENGTH_8B;
	UartHandle.Init.StopBits   = UART_STOPBITS_1;
	UartHandle.Init.Parity     = UART_PARITY_NONE;
	UartHandle.Init.HwFlowCtl  = UART_HWCONTROL_NONE;
	UartHandle.Init.Mode       = UART_MODE_TX_RX;
	__USART1_CLK_ENABLE();
 80004fc:	9502      	str	r5, [sp, #8]
  UartHandle.Init.BaudRate   = 230400;
 80004fe:	f44f 3361 	mov.w	r3, #230400	; 0x38400
 8000502:	e9c0 1303 	strd	r1, r3, [r0, #12]
	UartHandle.Init.StopBits   = UART_STOPBITS_1;
 8000506:	e9c0 5505 	strd	r5, r5, [r0, #20]
	UartHandle.Init.Mode       = UART_MODE_TX_RX;
 800050a:	230c      	movs	r3, #12
	UartHandle.Init.Parity     = UART_PARITY_NONE;
 800050c:	61c5      	str	r5, [r0, #28]
	UartHandle.Init.HwFlowCtl  = UART_HWCONTROL_NONE;
 800050e:	6245      	str	r5, [r0, #36]	; 0x24
	UartHandle.Init.Mode       = UART_MODE_TX_RX;
 8000510:	6203      	str	r3, [r0, #32]
	__USART1_CLK_ENABLE();
 8000512:	6c63      	ldr	r3, [r4, #68]	; 0x44
 8000514:	f043 0310 	orr.w	r3, r3, #16
 8000518:	6463      	str	r3, [r4, #68]	; 0x44
 800051a:	6c63      	ldr	r3, [r4, #68]	; 0x44
 800051c:	f003 0310 	and.w	r3, r3, #16
 8000520:	9302      	str	r3, [sp, #8]
	HAL_UART_Init(&UartHandle);
 8000522:	300c      	adds	r0, #12
	__USART1_CLK_ENABLE();
 8000524:	9b02      	ldr	r3, [sp, #8]
	HAL_UART_Init(&UartHandle);
 8000526:	f000 fb89 	bl	8000c3c <HAL_UART_Init>
}
 800052a:	b009      	add	sp, #36	; 0x24
 800052c:	bd30      	pop	{r4, r5, pc}
 800052e:	bf00      	nop
 8000530:	40023800 	.word	0x40023800
 8000534:	40020000 	.word	0x40020000
 8000538:	2000044c 	.word	0x2000044c
 800053c:	40011000 	.word	0x40011000

08000540 <trigger_setup>:

//#define STM32F4_WLCSP

void trigger_setup(void)
{
 8000540:	b57f      	push	{r0, r1, r2, r3, r4, r5, r6, lr}
	__GPIOA_CLK_ENABLE();
 8000542:	4b0d      	ldr	r3, [pc, #52]	; (8000578 <trigger_setup+0x38>)
	GPIO_InitTypeDef GpioInit;
	GpioInit.Pin       = GPIO_PIN_12;
	GpioInit.Mode      = GPIO_MODE_OUTPUT_PP;
	GpioInit.Pull      = GPIO_NOPULL;
	GpioInit.Speed     = GPIO_SPEED_FREQ_HIGH;
	HAL_GPIO_Init(GPIOA, &GpioInit);
 8000544:	480d      	ldr	r0, [pc, #52]	; (800057c <trigger_setup+0x3c>)
	__GPIOA_CLK_ENABLE();
 8000546:	2100      	movs	r1, #0
 8000548:	9100      	str	r1, [sp, #0]
 800054a:	6b1a      	ldr	r2, [r3, #48]	; 0x30
 800054c:	f042 0201 	orr.w	r2, r2, #1
 8000550:	631a      	str	r2, [r3, #48]	; 0x30
 8000552:	6b1b      	ldr	r3, [r3, #48]	; 0x30
	GpioInit.Pull      = GPIO_NOPULL;
 8000554:	9103      	str	r1, [sp, #12]
	__GPIOA_CLK_ENABLE();
 8000556:	f003 0301 	and.w	r3, r3, #1
 800055a:	9300      	str	r3, [sp, #0]
 800055c:	9b00      	ldr	r3, [sp, #0]
	GpioInit.Mode      = GPIO_MODE_OUTPUT_PP;
 800055e:	f44f 5280 	mov.w	r2, #4096	; 0x1000
 8000562:	2301      	movs	r3, #1
 8000564:	e9cd 2301 	strd	r2, r3, [sp, #4]
	HAL_GPIO_Init(GPIOA, &GpioInit);
 8000568:	a901      	add	r1, sp, #4
	GpioInit.Speed     = GPIO_SPEED_FREQ_HIGH;
 800056a:	2302      	movs	r3, #2
 800056c:	9304      	str	r3, [sp, #16]
	HAL_GPIO_Init(GPIOA, &GpioInit);
 800056e:	f000 fa79 	bl	8000a64 <HAL_GPIO_Init>
#endif
}
 8000572:	b007      	add	sp, #28
 8000574:	f85d fb04 	ldr.w	pc, [sp], #4
 8000578:	40023800 	.word	0x40023800
 800057c:	40020000 	.word	0x40020000

08000580 <trigger_high>:
void trigger_high(void)
{
#ifdef STM32F4_WLCSP
    HAL_GPIO_WritePin(GPIOD, GPIO_PIN_4, SET);
#else
	HAL_GPIO_WritePin(GPIOA, GPIO_PIN_12, SET);
 8000580:	4802      	ldr	r0, [pc, #8]	; (800058c <trigger_high+0xc>)
 8000582:	2201      	movs	r2, #1
 8000584:	f44f 5180 	mov.w	r1, #4096	; 0x1000
 8000588:	f000 bb52 	b.w	8000c30 <HAL_GPIO_WritePin>
 800058c:	40020000 	.word	0x40020000

08000590 <trigger_low>:
void trigger_low(void)
{
#ifdef STM32F4_WLCSP
    HAL_GPIO_WritePin(GPIOD, GPIO_PIN_4, RESET);
#else
	HAL_GPIO_WritePin(GPIOA, GPIO_PIN_12, RESET);
 8000590:	4802      	ldr	r0, [pc, #8]	; (800059c <trigger_low+0xc>)
 8000592:	2200      	movs	r2, #0
 8000594:	f44f 5180 	mov.w	r1, #4096	; 0x1000
 8000598:	f000 bb4a 	b.w	8000c30 <HAL_GPIO_WritePin>
 800059c:	40020000 	.word	0x40020000

080005a0 <getch>:
#endif
}
char getch(void)
{
 80005a0:	b513      	push	{r0, r1, r4, lr}
	uint8_t d;
	while (HAL_UART_Receive(&UartHandle, &d, 1, 5000) != HAL_OK);
 80005a2:	4c07      	ldr	r4, [pc, #28]	; (80005c0 <getch+0x20>)
 80005a4:	f241 3388 	movw	r3, #5000	; 0x1388
 80005a8:	2201      	movs	r2, #1
 80005aa:	f10d 0107 	add.w	r1, sp, #7
 80005ae:	4620      	mov	r0, r4
 80005b0:	f000 fbf9 	bl	8000da6 <HAL_UART_Receive>
 80005b4:	2800      	cmp	r0, #0
 80005b6:	d1f5      	bne.n	80005a4 <getch+0x4>
	return d;
}
 80005b8:	f89d 0007 	ldrb.w	r0, [sp, #7]
 80005bc:	b002      	add	sp, #8
 80005be:	bd10      	pop	{r4, pc}
 80005c0:	20000458 	.word	0x20000458

080005c4 <putch>:

void putch(char c)
{
 80005c4:	b507      	push	{r0, r1, r2, lr}
	uint8_t d  = c;
	HAL_UART_Transmit(&UartHandle,  &d, 1, 5000);
 80005c6:	f241 3388 	movw	r3, #5000	; 0x1388
	uint8_t d  = c;
 80005ca:	f88d 0007 	strb.w	r0, [sp, #7]
	HAL_UART_Transmit(&UartHandle,  &d, 1, 5000);
 80005ce:	2201      	movs	r2, #1
 80005d0:	f10d 0107 	add.w	r1, sp, #7
 80005d4:	4802      	ldr	r0, [pc, #8]	; (80005e0 <putch+0x1c>)
 80005d6:	f000 fba1 	bl	8000d1c <HAL_UART_Transmit>
}
 80005da:	b003      	add	sp, #12
 80005dc:	f85d fb04 	ldr.w	pc, [sp], #4
 80005e0:	20000458 	.word	0x20000458

080005e4 <HAL_GetTick>:


uint32_t HAL_GetTick(void)
{
	static uint32_t tick;
	return tick++;;
 80005e4:	4b02      	ldr	r3, [pc, #8]	; (80005f0 <HAL_GetTick+0xc>)
 80005e6:	6818      	ldr	r0, [r3, #0]
 80005e8:	1c42      	adds	r2, r0, #1
 80005ea:	601a      	str	r2, [r3, #0]
}
 80005ec:	4770      	bx	lr
 80005ee:	bf00      	nop
 80005f0:	200004e8 	.word	0x200004e8

080005f4 <HAL_RCC_OscConfig>:
  uint32_t tickstart = 0U;

  /* Check the parameters */
  assert_param(IS_RCC_OSCILLATORTYPE(RCC_OscInitStruct->OscillatorType));
  /*------------------------------- HSE Configuration ------------------------*/
  if(((RCC_OscInitStruct->OscillatorType) & RCC_OSCILLATORTYPE_HSE) == RCC_OSCILLATORTYPE_HSE)
 80005f4:	6803      	ldr	r3, [r0, #0]
{
 80005f6:	b573      	push	{r0, r1, r4, r5, r6, lr}
  if(((RCC_OscInitStruct->OscillatorType) & RCC_OSCILLATORTYPE_HSE) == RCC_OSCILLATORTYPE_HSE)
 80005f8:	07de      	lsls	r6, r3, #31
{
 80005fa:	4601      	mov	r1, r0
  if(((RCC_OscInitStruct->OscillatorType) & RCC_OSCILLATORTYPE_HSE) == RCC_OSCILLATORTYPE_HSE)
 80005fc:	d43b      	bmi.n	8000676 <HAL_RCC_OscConfig+0x82>
        }
      }
    }
  }
  /*----------------------------- HSI Configuration --------------------------*/
  if(((RCC_OscInitStruct->OscillatorType) & RCC_OSCILLATORTYPE_HSI) == RCC_OSCILLATORTYPE_HSI)
 80005fe:	680b      	ldr	r3, [r1, #0]
 8000600:	079d      	lsls	r5, r3, #30
 8000602:	f100 808b 	bmi.w	800071c <HAL_RCC_OscConfig+0x128>
        }
      }
    }
  }
  /*------------------------------ LSI Configuration -------------------------*/
  if(((RCC_OscInitStruct->OscillatorType) & RCC_OSCILLATORTYPE_LSI) == RCC_OSCILLATORTYPE_LSI)
 8000606:	680b      	ldr	r3, [r1, #0]
 8000608:	0718      	lsls	r0, r3, #28
 800060a:	f100 80d6 	bmi.w	80007ba <HAL_RCC_OscConfig+0x1c6>
        }
      }
    }
  }
  /*------------------------------ LSE Configuration -------------------------*/
  if(((RCC_OscInitStruct->OscillatorType) & RCC_OSCILLATORTYPE_LSE) == RCC_OSCILLATORTYPE_LSE)
 800060e:	680b      	ldr	r3, [r1, #0]
 8000610:	075a      	lsls	r2, r3, #29
 8000612:	d52a      	bpl.n	800066a <HAL_RCC_OscConfig+0x76>
  {
    /* Check the parameters */
    assert_param(IS_RCC_LSE(RCC_OscInitStruct->LSEState));

    /* Enable Power Clock*/
    __HAL_RCC_PWR_CLK_ENABLE();
 8000614:	2300      	movs	r3, #0
 8000616:	9301      	str	r3, [sp, #4]
 8000618:	4b91      	ldr	r3, [pc, #580]	; (8000860 <HAL_RCC_OscConfig+0x26c>)

    /* Enable write access to Backup domain */
    PWR->CR |= PWR_CR_DBP;
 800061a:	4c92      	ldr	r4, [pc, #584]	; (8000864 <HAL_RCC_OscConfig+0x270>)
    __HAL_RCC_PWR_CLK_ENABLE();
 800061c:	6c1a      	ldr	r2, [r3, #64]	; 0x40
 800061e:	f042 5280 	orr.w	r2, r2, #268435456	; 0x10000000
 8000622:	641a      	str	r2, [r3, #64]	; 0x40
 8000624:	6c1b      	ldr	r3, [r3, #64]	; 0x40
 8000626:	f003 5380 	and.w	r3, r3, #268435456	; 0x10000000
 800062a:	9301      	str	r3, [sp, #4]
 800062c:	9b01      	ldr	r3, [sp, #4]
    PWR->CR |= PWR_CR_DBP;
 800062e:	6823      	ldr	r3, [r4, #0]
 8000630:	f443 7380 	orr.w	r3, r3, #256	; 0x100
 8000634:	6023      	str	r3, [r4, #0]

    /* Wait for Backup domain Write protection enable */
    tickstart = HAL_GetTick();
 8000636:	f7ff ffd5 	bl	80005e4 <HAL_GetTick>
 800063a:	4605      	mov	r5, r0

    while((PWR->CR & PWR_CR_DBP) == RESET)
 800063c:	6823      	ldr	r3, [r4, #0]
 800063e:	05d8      	lsls	r0, r3, #23
 8000640:	f140 80df 	bpl.w	8000802 <HAL_RCC_OscConfig+0x20e>
        return HAL_TIMEOUT;
      }
    }

    /* Set the new LSE configuration -----------------------------------------*/
    __HAL_RCC_LSE_CONFIG(RCC_OscInitStruct->LSEState);
 8000644:	688b      	ldr	r3, [r1, #8]
 8000646:	4c86      	ldr	r4, [pc, #536]	; (8000860 <HAL_RCC_OscConfig+0x26c>)
 8000648:	2b01      	cmp	r3, #1
 800064a:	f040 80e1 	bne.w	8000810 <HAL_RCC_OscConfig+0x21c>
 800064e:	6f23      	ldr	r3, [r4, #112]	; 0x70
 8000650:	f043 0301 	orr.w	r3, r3, #1
 8000654:	6723      	str	r3, [r4, #112]	; 0x70
    /* Check the LSE State */
    if((RCC_OscInitStruct->LSEState) != RCC_LSE_OFF)
    {
      /* Get Start Tick*/
      tickstart = HAL_GetTick();
 8000656:	f7ff ffc5 	bl	80005e4 <HAL_GetTick>

      /* Wait till LSE is ready */
      while(__HAL_RCC_GET_FLAG(RCC_FLAG_LSERDY) == RESET)
 800065a:	4d81      	ldr	r5, [pc, #516]	; (8000860 <HAL_RCC_OscConfig+0x26c>)
      tickstart = HAL_GetTick();
 800065c:	4604      	mov	r4, r0
      {
        if((HAL_GetTick() - tickstart ) > RCC_LSE_TIMEOUT_VALUE)
 800065e:	f241 3688 	movw	r6, #5000	; 0x1388
      while(__HAL_RCC_GET_FLAG(RCC_FLAG_LSERDY) == RESET)
 8000662:	6f2b      	ldr	r3, [r5, #112]	; 0x70
 8000664:	079a      	lsls	r2, r3, #30
 8000666:	f140 80f4 	bpl.w	8000852 <HAL_RCC_OscConfig+0x25e>
    }
  }
  /*-------------------------------- PLL Configuration -----------------------*/
  /* Check the parameters */
  assert_param(IS_RCC_PLL(RCC_OscInitStruct->PLL.PLLState));
  if ((RCC_OscInitStruct->PLL.PLLState) != RCC_PLL_NONE)
 800066a:	698a      	ldr	r2, [r1, #24]
 800066c:	2a00      	cmp	r2, #0
 800066e:	f040 80ff 	bne.w	8000870 <HAL_RCC_OscConfig+0x27c>
    else
    {
      return HAL_ERROR;
    }
  }
  return HAL_OK;
 8000672:	2000      	movs	r0, #0
 8000674:	e015      	b.n	80006a2 <HAL_RCC_OscConfig+0xae>
    if((__HAL_RCC_GET_SYSCLK_SOURCE() == RCC_CFGR_SWS_HSE) ||\
 8000676:	4b7a      	ldr	r3, [pc, #488]	; (8000860 <HAL_RCC_OscConfig+0x26c>)
 8000678:	689a      	ldr	r2, [r3, #8]
 800067a:	f002 020c 	and.w	r2, r2, #12
 800067e:	2a04      	cmp	r2, #4
 8000680:	d007      	beq.n	8000692 <HAL_RCC_OscConfig+0x9e>
      ((__HAL_RCC_GET_SYSCLK_SOURCE() == RCC_CFGR_SWS_PLL) && ((RCC->PLLCFGR & RCC_PLLCFGR_PLLSRC) == RCC_PLLCFGR_PLLSRC_HSE)))
 8000682:	689a      	ldr	r2, [r3, #8]
 8000684:	f002 020c 	and.w	r2, r2, #12
    if((__HAL_RCC_GET_SYSCLK_SOURCE() == RCC_CFGR_SWS_HSE) ||\
 8000688:	2a08      	cmp	r2, #8
 800068a:	d10c      	bne.n	80006a6 <HAL_RCC_OscConfig+0xb2>
      ((__HAL_RCC_GET_SYSCLK_SOURCE() == RCC_CFGR_SWS_PLL) && ((RCC->PLLCFGR & RCC_PLLCFGR_PLLSRC) == RCC_PLLCFGR_PLLSRC_HSE)))
 800068c:	685a      	ldr	r2, [r3, #4]
 800068e:	0254      	lsls	r4, r2, #9
 8000690:	d509      	bpl.n	80006a6 <HAL_RCC_OscConfig+0xb2>
      if((__HAL_RCC_GET_FLAG(RCC_FLAG_HSERDY) != RESET) && (RCC_OscInitStruct->HSEState == RCC_HSE_OFF))
 8000692:	4b73      	ldr	r3, [pc, #460]	; (8000860 <HAL_RCC_OscConfig+0x26c>)
 8000694:	681b      	ldr	r3, [r3, #0]
 8000696:	0398      	lsls	r0, r3, #14
 8000698:	d5b1      	bpl.n	80005fe <HAL_RCC_OscConfig+0xa>
 800069a:	684b      	ldr	r3, [r1, #4]
 800069c:	2b00      	cmp	r3, #0
 800069e:	d1ae      	bne.n	80005fe <HAL_RCC_OscConfig+0xa>
        return HAL_ERROR;
 80006a0:	2001      	movs	r0, #1
}
 80006a2:	b002      	add	sp, #8
 80006a4:	bd70      	pop	{r4, r5, r6, pc}
      __HAL_RCC_HSE_CONFIG(RCC_OscInitStruct->HSEState);
 80006a6:	684a      	ldr	r2, [r1, #4]
 80006a8:	f5b2 3f80 	cmp.w	r2, #65536	; 0x10000
 80006ac:	d112      	bne.n	80006d4 <HAL_RCC_OscConfig+0xe0>
 80006ae:	681a      	ldr	r2, [r3, #0]
 80006b0:	f442 3280 	orr.w	r2, r2, #65536	; 0x10000
 80006b4:	601a      	str	r2, [r3, #0]
        tickstart = HAL_GetTick();
 80006b6:	f7ff ff95 	bl	80005e4 <HAL_GetTick>
        while(__HAL_RCC_GET_FLAG(RCC_FLAG_HSERDY) == RESET)
 80006ba:	4d69      	ldr	r5, [pc, #420]	; (8000860 <HAL_RCC_OscConfig+0x26c>)
          if((HAL_GetTick() - tickstart ) > HSE_TIMEOUT_VALUE)
 80006bc:	4e6a      	ldr	r6, [pc, #424]	; (8000868 <HAL_RCC_OscConfig+0x274>)
        tickstart = HAL_GetTick();
 80006be:	4604      	mov	r4, r0
        while(__HAL_RCC_GET_FLAG(RCC_FLAG_HSERDY) == RESET)
 80006c0:	682b      	ldr	r3, [r5, #0]
 80006c2:	039a      	lsls	r2, r3, #14
 80006c4:	d49b      	bmi.n	80005fe <HAL_RCC_OscConfig+0xa>
          if((HAL_GetTick() - tickstart ) > HSE_TIMEOUT_VALUE)
 80006c6:	f7ff ff8d 	bl	80005e4 <HAL_GetTick>
 80006ca:	1b00      	subs	r0, r0, r4
 80006cc:	42b0      	cmp	r0, r6
 80006ce:	d9f7      	bls.n	80006c0 <HAL_RCC_OscConfig+0xcc>
            return HAL_TIMEOUT;
 80006d0:	2003      	movs	r0, #3
 80006d2:	e7e6      	b.n	80006a2 <HAL_RCC_OscConfig+0xae>
      __HAL_RCC_HSE_CONFIG(RCC_OscInitStruct->HSEState);
 80006d4:	4c62      	ldr	r4, [pc, #392]	; (8000860 <HAL_RCC_OscConfig+0x26c>)
 80006d6:	f5b2 2fa0 	cmp.w	r2, #327680	; 0x50000
 80006da:	6823      	ldr	r3, [r4, #0]
 80006dc:	d107      	bne.n	80006ee <HAL_RCC_OscConfig+0xfa>
 80006de:	f443 2380 	orr.w	r3, r3, #262144	; 0x40000
 80006e2:	6023      	str	r3, [r4, #0]
 80006e4:	6823      	ldr	r3, [r4, #0]
 80006e6:	f443 3380 	orr.w	r3, r3, #65536	; 0x10000
 80006ea:	6023      	str	r3, [r4, #0]
      if((RCC_OscInitStruct->HSEState) != RCC_HSE_OFF)
 80006ec:	e7e3      	b.n	80006b6 <HAL_RCC_OscConfig+0xc2>
      __HAL_RCC_HSE_CONFIG(RCC_OscInitStruct->HSEState);
 80006ee:	f423 3380 	bic.w	r3, r3, #65536	; 0x10000
 80006f2:	6023      	str	r3, [r4, #0]
 80006f4:	6823      	ldr	r3, [r4, #0]
 80006f6:	f423 2380 	bic.w	r3, r3, #262144	; 0x40000
 80006fa:	6023      	str	r3, [r4, #0]
      if((RCC_OscInitStruct->HSEState) != RCC_HSE_OFF)
 80006fc:	2a00      	cmp	r2, #0
 80006fe:	d1da      	bne.n	80006b6 <HAL_RCC_OscConfig+0xc2>
        tickstart = HAL_GetTick();
 8000700:	f7ff ff70 	bl	80005e4 <HAL_GetTick>
          if((HAL_GetTick() - tickstart ) > HSE_TIMEOUT_VALUE)
 8000704:	4e58      	ldr	r6, [pc, #352]	; (8000868 <HAL_RCC_OscConfig+0x274>)
        tickstart = HAL_GetTick();
 8000706:	4605      	mov	r5, r0
        while(__HAL_RCC_GET_FLAG(RCC_FLAG_HSERDY) != RESET)
 8000708:	6823      	ldr	r3, [r4, #0]
 800070a:	039b      	lsls	r3, r3, #14
 800070c:	f57f af77 	bpl.w	80005fe <HAL_RCC_OscConfig+0xa>
          if((HAL_GetTick() - tickstart ) > HSE_TIMEOUT_VALUE)
 8000710:	f7ff ff68 	bl	80005e4 <HAL_GetTick>
 8000714:	1b40      	subs	r0, r0, r5
 8000716:	42b0      	cmp	r0, r6
 8000718:	d9f6      	bls.n	8000708 <HAL_RCC_OscConfig+0x114>
 800071a:	e7d9      	b.n	80006d0 <HAL_RCC_OscConfig+0xdc>
    if((__HAL_RCC_GET_SYSCLK_SOURCE() == RCC_CFGR_SWS_HSI) ||\
 800071c:	4b50      	ldr	r3, [pc, #320]	; (8000860 <HAL_RCC_OscConfig+0x26c>)
 800071e:	689a      	ldr	r2, [r3, #8]
 8000720:	f012 0f0c 	tst.w	r2, #12
 8000724:	d007      	beq.n	8000736 <HAL_RCC_OscConfig+0x142>
      ((__HAL_RCC_GET_SYSCLK_SOURCE() == RCC_CFGR_SWS_PLL) && ((RCC->PLLCFGR & RCC_PLLCFGR_PLLSRC) == RCC_PLLCFGR_PLLSRC_HSI)))
 8000726:	689a      	ldr	r2, [r3, #8]
 8000728:	f002 020c 	and.w	r2, r2, #12
    if((__HAL_RCC_GET_SYSCLK_SOURCE() == RCC_CFGR_SWS_HSI) ||\
 800072c:	2a08      	cmp	r2, #8
 800072e:	d116      	bne.n	800075e <HAL_RCC_OscConfig+0x16a>
      ((__HAL_RCC_GET_SYSCLK_SOURCE() == RCC_CFGR_SWS_PLL) && ((RCC->PLLCFGR & RCC_PLLCFGR_PLLSRC) == RCC_PLLCFGR_PLLSRC_HSI)))
 8000730:	685b      	ldr	r3, [r3, #4]
 8000732:	0258      	lsls	r0, r3, #9
 8000734:	d413      	bmi.n	800075e <HAL_RCC_OscConfig+0x16a>
      if((__HAL_RCC_GET_FLAG(RCC_FLAG_HSIRDY) != RESET) && (RCC_OscInitStruct->HSIState != RCC_HSI_ON))
 8000736:	484a      	ldr	r0, [pc, #296]	; (8000860 <HAL_RCC_OscConfig+0x26c>)
 8000738:	6803      	ldr	r3, [r0, #0]
 800073a:	079a      	lsls	r2, r3, #30
 800073c:	d502      	bpl.n	8000744 <HAL_RCC_OscConfig+0x150>
 800073e:	68cb      	ldr	r3, [r1, #12]
 8000740:	2b01      	cmp	r3, #1
 8000742:	d1ad      	bne.n	80006a0 <HAL_RCC_OscConfig+0xac>
        __HAL_RCC_HSI_CALIBRATIONVALUE_ADJUST(RCC_OscInitStruct->HSICalibrationValue);
 8000744:	6804      	ldr	r4, [r0, #0]
__attribute__((always_inline)) __STATIC_INLINE uint32_t __RBIT(uint32_t value)
{
  uint32_t result;

#if       (__CORTEX_M >= 0x03U) || (__CORTEX_SC >= 300U)
   __ASM volatile ("rbit %0, %1" : "=r" (result) : "r" (value) );
 8000746:	23f8      	movs	r3, #248	; 0xf8
 8000748:	fa93 f3a3 	rbit	r3, r3
 800074c:	fab3 f283 	clz	r2, r3
 8000750:	690b      	ldr	r3, [r1, #16]
 8000752:	4093      	lsls	r3, r2
 8000754:	f024 02f8 	bic.w	r2, r4, #248	; 0xf8
 8000758:	4313      	orrs	r3, r2
 800075a:	6003      	str	r3, [r0, #0]
      if((__HAL_RCC_GET_FLAG(RCC_FLAG_HSIRDY) != RESET) && (RCC_OscInitStruct->HSIState != RCC_HSI_ON))
 800075c:	e753      	b.n	8000606 <HAL_RCC_OscConfig+0x12>
      if((RCC_OscInitStruct->HSIState)!= RCC_HSI_OFF)
 800075e:	68ca      	ldr	r2, [r1, #12]
 8000760:	4b42      	ldr	r3, [pc, #264]	; (800086c <HAL_RCC_OscConfig+0x278>)
 8000762:	b1da      	cbz	r2, 800079c <HAL_RCC_OscConfig+0x1a8>
        __HAL_RCC_HSI_ENABLE();
 8000764:	2201      	movs	r2, #1
 8000766:	601a      	str	r2, [r3, #0]
        tickstart = HAL_GetTick();
 8000768:	f7ff ff3c 	bl	80005e4 <HAL_GetTick>
        while(__HAL_RCC_GET_FLAG(RCC_FLAG_HSIRDY) == RESET)
 800076c:	4c3c      	ldr	r4, [pc, #240]	; (8000860 <HAL_RCC_OscConfig+0x26c>)
        tickstart = HAL_GetTick();
 800076e:	4605      	mov	r5, r0
        while(__HAL_RCC_GET_FLAG(RCC_FLAG_HSIRDY) == RESET)
 8000770:	6823      	ldr	r3, [r4, #0]
 8000772:	079b      	lsls	r3, r3, #30
 8000774:	d50c      	bpl.n	8000790 <HAL_RCC_OscConfig+0x19c>
        __HAL_RCC_HSI_CALIBRATIONVALUE_ADJUST(RCC_OscInitStruct->HSICalibrationValue);
 8000776:	6820      	ldr	r0, [r4, #0]
 8000778:	23f8      	movs	r3, #248	; 0xf8
 800077a:	fa93 f3a3 	rbit	r3, r3
 800077e:	fab3 f283 	clz	r2, r3
 8000782:	690b      	ldr	r3, [r1, #16]
 8000784:	4093      	lsls	r3, r2
 8000786:	f020 02f8 	bic.w	r2, r0, #248	; 0xf8
 800078a:	4313      	orrs	r3, r2
 800078c:	6023      	str	r3, [r4, #0]
 800078e:	e73a      	b.n	8000606 <HAL_RCC_OscConfig+0x12>
          if((HAL_GetTick() - tickstart ) > HSI_TIMEOUT_VALUE)
 8000790:	f7ff ff28 	bl	80005e4 <HAL_GetTick>
 8000794:	1b40      	subs	r0, r0, r5
 8000796:	2802      	cmp	r0, #2
 8000798:	d9ea      	bls.n	8000770 <HAL_RCC_OscConfig+0x17c>
 800079a:	e799      	b.n	80006d0 <HAL_RCC_OscConfig+0xdc>
        __HAL_RCC_HSI_DISABLE();
 800079c:	601a      	str	r2, [r3, #0]
        tickstart = HAL_GetTick();
 800079e:	f7ff ff21 	bl	80005e4 <HAL_GetTick>
        while(__HAL_RCC_GET_FLAG(RCC_FLAG_HSIRDY) != RESET)
 80007a2:	4d2f      	ldr	r5, [pc, #188]	; (8000860 <HAL_RCC_OscConfig+0x26c>)
        tickstart = HAL_GetTick();
 80007a4:	4604      	mov	r4, r0
        while(__HAL_RCC_GET_FLAG(RCC_FLAG_HSIRDY) != RESET)
 80007a6:	682b      	ldr	r3, [r5, #0]
 80007a8:	079e      	lsls	r6, r3, #30
 80007aa:	f57f af2c 	bpl.w	8000606 <HAL_RCC_OscConfig+0x12>
          if((HAL_GetTick() - tickstart ) > HSI_TIMEOUT_VALUE)
 80007ae:	f7ff ff19 	bl	80005e4 <HAL_GetTick>
 80007b2:	1b00      	subs	r0, r0, r4
 80007b4:	2802      	cmp	r0, #2
 80007b6:	d9f6      	bls.n	80007a6 <HAL_RCC_OscConfig+0x1b2>
 80007b8:	e78a      	b.n	80006d0 <HAL_RCC_OscConfig+0xdc>
    if((RCC_OscInitStruct->LSIState)!= RCC_LSI_OFF)
 80007ba:	694a      	ldr	r2, [r1, #20]
 80007bc:	4b2b      	ldr	r3, [pc, #172]	; (800086c <HAL_RCC_OscConfig+0x278>)
 80007be:	b182      	cbz	r2, 80007e2 <HAL_RCC_OscConfig+0x1ee>
      __HAL_RCC_LSI_ENABLE();
 80007c0:	2201      	movs	r2, #1
 80007c2:	f8c3 2e80 	str.w	r2, [r3, #3712]	; 0xe80
      tickstart = HAL_GetTick();
 80007c6:	f7ff ff0d 	bl	80005e4 <HAL_GetTick>
      while(__HAL_RCC_GET_FLAG(RCC_FLAG_LSIRDY) == RESET)
 80007ca:	4d25      	ldr	r5, [pc, #148]	; (8000860 <HAL_RCC_OscConfig+0x26c>)
      tickstart = HAL_GetTick();
 80007cc:	4604      	mov	r4, r0
      while(__HAL_RCC_GET_FLAG(RCC_FLAG_LSIRDY) == RESET)
 80007ce:	6f6b      	ldr	r3, [r5, #116]	; 0x74
 80007d0:	079b      	lsls	r3, r3, #30
 80007d2:	f53f af1c 	bmi.w	800060e <HAL_RCC_OscConfig+0x1a>
        if((HAL_GetTick() - tickstart ) > LSI_TIMEOUT_VALUE)
 80007d6:	f7ff ff05 	bl	80005e4 <HAL_GetTick>
 80007da:	1b00      	subs	r0, r0, r4
 80007dc:	2802      	cmp	r0, #2
 80007de:	d9f6      	bls.n	80007ce <HAL_RCC_OscConfig+0x1da>
 80007e0:	e776      	b.n	80006d0 <HAL_RCC_OscConfig+0xdc>
      __HAL_RCC_LSI_DISABLE();
 80007e2:	f8c3 2e80 	str.w	r2, [r3, #3712]	; 0xe80
      tickstart = HAL_GetTick();
 80007e6:	f7ff fefd 	bl	80005e4 <HAL_GetTick>
      while(__HAL_RCC_GET_FLAG(RCC_FLAG_LSIRDY) != RESET)
 80007ea:	4d1d      	ldr	r5, [pc, #116]	; (8000860 <HAL_RCC_OscConfig+0x26c>)
      tickstart = HAL_GetTick();
 80007ec:	4604      	mov	r4, r0
      while(__HAL_RCC_GET_FLAG(RCC_FLAG_LSIRDY) != RESET)
 80007ee:	6f6b      	ldr	r3, [r5, #116]	; 0x74
 80007f0:	079e      	lsls	r6, r3, #30
 80007f2:	f57f af0c 	bpl.w	800060e <HAL_RCC_OscConfig+0x1a>
        if((HAL_GetTick() - tickstart ) > LSI_TIMEOUT_VALUE)
 80007f6:	f7ff fef5 	bl	80005e4 <HAL_GetTick>
 80007fa:	1b00      	subs	r0, r0, r4
 80007fc:	2802      	cmp	r0, #2
 80007fe:	d9f6      	bls.n	80007ee <HAL_RCC_OscConfig+0x1fa>
 8000800:	e766      	b.n	80006d0 <HAL_RCC_OscConfig+0xdc>
      if((HAL_GetTick() - tickstart ) > RCC_DBP_TIMEOUT_VALUE)
 8000802:	f7ff feef 	bl	80005e4 <HAL_GetTick>
 8000806:	1b40      	subs	r0, r0, r5
 8000808:	2802      	cmp	r0, #2
 800080a:	f67f af17 	bls.w	800063c <HAL_RCC_OscConfig+0x48>
 800080e:	e75f      	b.n	80006d0 <HAL_RCC_OscConfig+0xdc>
    __HAL_RCC_LSE_CONFIG(RCC_OscInitStruct->LSEState);
 8000810:	2b05      	cmp	r3, #5
 8000812:	d104      	bne.n	800081e <HAL_RCC_OscConfig+0x22a>
 8000814:	6f23      	ldr	r3, [r4, #112]	; 0x70
 8000816:	f043 0304 	orr.w	r3, r3, #4
 800081a:	6723      	str	r3, [r4, #112]	; 0x70
 800081c:	e717      	b.n	800064e <HAL_RCC_OscConfig+0x5a>
 800081e:	6f22      	ldr	r2, [r4, #112]	; 0x70
 8000820:	f022 0201 	bic.w	r2, r2, #1
 8000824:	6722      	str	r2, [r4, #112]	; 0x70
 8000826:	6f22      	ldr	r2, [r4, #112]	; 0x70
 8000828:	f022 0204 	bic.w	r2, r2, #4
 800082c:	6722      	str	r2, [r4, #112]	; 0x70
    if((RCC_OscInitStruct->LSEState) != RCC_LSE_OFF)
 800082e:	2b00      	cmp	r3, #0
 8000830:	f47f af11 	bne.w	8000656 <HAL_RCC_OscConfig+0x62>
      tickstart = HAL_GetTick();
 8000834:	f7ff fed6 	bl	80005e4 <HAL_GetTick>
        if((HAL_GetTick() - tickstart ) > RCC_LSE_TIMEOUT_VALUE)
 8000838:	f241 3688 	movw	r6, #5000	; 0x1388
      tickstart = HAL_GetTick();
 800083c:	4605      	mov	r5, r0
      while(__HAL_RCC_GET_FLAG(RCC_FLAG_LSERDY) != RESET)
 800083e:	6f23      	ldr	r3, [r4, #112]	; 0x70
 8000840:	079b      	lsls	r3, r3, #30
 8000842:	f57f af12 	bpl.w	800066a <HAL_RCC_OscConfig+0x76>
        if((HAL_GetTick() - tickstart ) > RCC_LSE_TIMEOUT_VALUE)
 8000846:	f7ff fecd 	bl	80005e4 <HAL_GetTick>
 800084a:	1b40      	subs	r0, r0, r5
 800084c:	42b0      	cmp	r0, r6
 800084e:	d9f6      	bls.n	800083e <HAL_RCC_OscConfig+0x24a>
 8000850:	e73e      	b.n	80006d0 <HAL_RCC_OscConfig+0xdc>
        if((HAL_GetTick() - tickstart ) > RCC_LSE_TIMEOUT_VALUE)
 8000852:	f7ff fec7 	bl	80005e4 <HAL_GetTick>
 8000856:	1b00      	subs	r0, r0, r4
 8000858:	42b0      	cmp	r0, r6
 800085a:	f67f af02 	bls.w	8000662 <HAL_RCC_OscConfig+0x6e>
 800085e:	e737      	b.n	80006d0 <HAL_RCC_OscConfig+0xdc>
 8000860:	40023800 	.word	0x40023800
 8000864:	40007000 	.word	0x40007000
 8000868:	05f5e100 	.word	0x05f5e100
 800086c:	42470000 	.word	0x42470000
    if(__HAL_RCC_GET_SYSCLK_SOURCE() != RCC_CFGR_SWS_PLL)
 8000870:	4c2d      	ldr	r4, [pc, #180]	; (8000928 <HAL_RCC_OscConfig+0x334>)
 8000872:	68a3      	ldr	r3, [r4, #8]
 8000874:	f003 030c 	and.w	r3, r3, #12
 8000878:	2b08      	cmp	r3, #8
 800087a:	f43f af11 	beq.w	80006a0 <HAL_RCC_OscConfig+0xac>
      if((RCC_OscInitStruct->PLL.PLLState) == RCC_PLL_ON)
 800087e:	4b2b      	ldr	r3, [pc, #172]	; (800092c <HAL_RCC_OscConfig+0x338>)
 8000880:	2a02      	cmp	r2, #2
 8000882:	f04f 0200 	mov.w	r2, #0
        __HAL_RCC_PLL_DISABLE();
 8000886:	661a      	str	r2, [r3, #96]	; 0x60
      if((RCC_OscInitStruct->PLL.PLLState) == RCC_PLL_ON)
 8000888:	d140      	bne.n	800090c <HAL_RCC_OscConfig+0x318>
        tickstart = HAL_GetTick();
 800088a:	f7ff feab 	bl	80005e4 <HAL_GetTick>
          if((HAL_GetTick() - tickstart ) > PLL_TIMEOUT_VALUE)
 800088e:	4e28      	ldr	r6, [pc, #160]	; (8000930 <HAL_RCC_OscConfig+0x33c>)
        tickstart = HAL_GetTick();
 8000890:	4605      	mov	r5, r0
        while(__HAL_RCC_GET_FLAG(RCC_FLAG_PLLRDY) != RESET)
 8000892:	6823      	ldr	r3, [r4, #0]
 8000894:	0198      	lsls	r0, r3, #6
 8000896:	d433      	bmi.n	8000900 <HAL_RCC_OscConfig+0x30c>
 8000898:	f647 76c0 	movw	r6, #32704	; 0x7fc0
 800089c:	fa96 f6a6 	rbit	r6, r6
 80008a0:	f44f 3240 	mov.w	r2, #196608	; 0x30000
        WRITE_REG(RCC->PLLCFGR, (RCC_OscInitStruct->PLL.PLLSource                                            | \
 80008a4:	fab6 f686 	clz	r6, r6
 80008a8:	fa92 f2a2 	rbit	r2, r2
 80008ac:	f04f 6070 	mov.w	r0, #251658240	; 0xf000000
 80008b0:	fab2 f582 	clz	r5, r2
 80008b4:	fa90 f0a0 	rbit	r0, r0
 80008b8:	e9d1 3207 	ldrd	r3, r2, [r1, #28]
 80008bc:	4313      	orrs	r3, r2
 80008be:	6a4a      	ldr	r2, [r1, #36]	; 0x24
 80008c0:	40b2      	lsls	r2, r6
 80008c2:	4313      	orrs	r3, r2
 80008c4:	6a8a      	ldr	r2, [r1, #40]	; 0x28
 80008c6:	0852      	lsrs	r2, r2, #1
 80008c8:	3a01      	subs	r2, #1
 80008ca:	40aa      	lsls	r2, r5
 80008cc:	4313      	orrs	r3, r2
 80008ce:	6aca      	ldr	r2, [r1, #44]	; 0x2c
          if((HAL_GetTick() - tickstart ) > PLL_TIMEOUT_VALUE)
 80008d0:	4d17      	ldr	r5, [pc, #92]	; (8000930 <HAL_RCC_OscConfig+0x33c>)
        WRITE_REG(RCC->PLLCFGR, (RCC_OscInitStruct->PLL.PLLSource                                            | \
 80008d2:	fab0 f080 	clz	r0, r0
 80008d6:	fa02 f000 	lsl.w	r0, r2, r0
 80008da:	4303      	orrs	r3, r0
 80008dc:	6063      	str	r3, [r4, #4]
        __HAL_RCC_PLL_ENABLE();
 80008de:	4b13      	ldr	r3, [pc, #76]	; (800092c <HAL_RCC_OscConfig+0x338>)
        while(__HAL_RCC_GET_FLAG(RCC_FLAG_PLLRDY) == RESET)
 80008e0:	4c11      	ldr	r4, [pc, #68]	; (8000928 <HAL_RCC_OscConfig+0x334>)
        __HAL_RCC_PLL_ENABLE();
 80008e2:	2201      	movs	r2, #1
 80008e4:	661a      	str	r2, [r3, #96]	; 0x60
        tickstart = HAL_GetTick();
 80008e6:	f7ff fe7d 	bl	80005e4 <HAL_GetTick>
 80008ea:	4601      	mov	r1, r0
        while(__HAL_RCC_GET_FLAG(RCC_FLAG_PLLRDY) == RESET)
 80008ec:	6823      	ldr	r3, [r4, #0]
 80008ee:	019a      	lsls	r2, r3, #6
 80008f0:	f53f aebf 	bmi.w	8000672 <HAL_RCC_OscConfig+0x7e>
          if((HAL_GetTick() - tickstart ) > PLL_TIMEOUT_VALUE)
 80008f4:	f7ff fe76 	bl	80005e4 <HAL_GetTick>
 80008f8:	1a40      	subs	r0, r0, r1
 80008fa:	42a8      	cmp	r0, r5
 80008fc:	d9f6      	bls.n	80008ec <HAL_RCC_OscConfig+0x2f8>
 80008fe:	e6e7      	b.n	80006d0 <HAL_RCC_OscConfig+0xdc>
          if((HAL_GetTick() - tickstart ) > PLL_TIMEOUT_VALUE)
 8000900:	f7ff fe70 	bl	80005e4 <HAL_GetTick>
 8000904:	1b40      	subs	r0, r0, r5
 8000906:	42b0      	cmp	r0, r6
 8000908:	d9c3      	bls.n	8000892 <HAL_RCC_OscConfig+0x29e>
 800090a:	e6e1      	b.n	80006d0 <HAL_RCC_OscConfig+0xdc>
        tickstart = HAL_GetTick();
 800090c:	f7ff fe6a 	bl	80005e4 <HAL_GetTick>
          if((HAL_GetTick() - tickstart ) > PLL_TIMEOUT_VALUE)
 8000910:	4d07      	ldr	r5, [pc, #28]	; (8000930 <HAL_RCC_OscConfig+0x33c>)
        tickstart = HAL_GetTick();
 8000912:	4601      	mov	r1, r0
        while(__HAL_RCC_GET_FLAG(RCC_FLAG_PLLRDY) != RESET)
 8000914:	6823      	ldr	r3, [r4, #0]
 8000916:	019b      	lsls	r3, r3, #6
 8000918:	f57f aeab 	bpl.w	8000672 <HAL_RCC_OscConfig+0x7e>
          if((HAL_GetTick() - tickstart ) > PLL_TIMEOUT_VALUE)
 800091c:	f7ff fe62 	bl	80005e4 <HAL_GetTick>
 8000920:	1a40      	subs	r0, r0, r1
 8000922:	42a8      	cmp	r0, r5
 8000924:	d9f6      	bls.n	8000914 <HAL_RCC_OscConfig+0x320>
 8000926:	e6d3      	b.n	80006d0 <HAL_RCC_OscConfig+0xdc>
 8000928:	40023800 	.word	0x40023800
 800092c:	42470000 	.word	0x42470000
 8000930:	001e8480 	.word	0x001e8480

08000934 <HAL_RCC_ClockConfig>:
  *         HPRE[3:0] bits to ensure that HCLK not exceed the maximum allowed frequency
  *         (for more details refer to section above "Initialization/de-initialization functions")
  * @retval None
  */
HAL_StatusTypeDef HAL_RCC_ClockConfig(RCC_ClkInitTypeDef  *RCC_ClkInitStruct, uint32_t FLatency)
{
 8000934:	b5f8      	push	{r3, r4, r5, r6, r7, lr}
  /* To correctly read data from FLASH memory, the number of wait states (LATENCY)
    must be correctly programmed according to the frequency of the CPU clock
    (HCLK) and the supply voltage of the device. */

  /* Increasing the number of wait states because of higher CPU frequency */
  if(FLatency > (FLASH->ACR & FLASH_ACR_LATENCY))
 8000936:	4b49      	ldr	r3, [pc, #292]	; (8000a5c <HAL_RCC_ClockConfig+0x128>)
 8000938:	681a      	ldr	r2, [r3, #0]
 800093a:	f002 020f 	and.w	r2, r2, #15
 800093e:	428a      	cmp	r2, r1
{
 8000940:	4604      	mov	r4, r0
  if(FLatency > (FLASH->ACR & FLASH_ACR_LATENCY))
 8000942:	d31a      	bcc.n	800097a <HAL_RCC_ClockConfig+0x46>
      return HAL_ERROR;
    }
  }

  /*-------------------------- HCLK Configuration --------------------------*/
  if(((RCC_ClkInitStruct->ClockType) & RCC_CLOCKTYPE_HCLK) == RCC_CLOCKTYPE_HCLK)
 8000944:	6822      	ldr	r2, [r4, #0]
 8000946:	0790      	lsls	r0, r2, #30
 8000948:	d420      	bmi.n	800098c <HAL_RCC_ClockConfig+0x58>
    assert_param(IS_RCC_HCLK(RCC_ClkInitStruct->AHBCLKDivider));
    MODIFY_REG(RCC->CFGR, RCC_CFGR_HPRE, RCC_ClkInitStruct->AHBCLKDivider);
  }

  /*------------------------- SYSCLK Configuration ---------------------------*/
  if(((RCC_ClkInitStruct->ClockType) & RCC_CLOCKTYPE_SYSCLK) == RCC_CLOCKTYPE_SYSCLK)
 800094a:	07d2      	lsls	r2, r2, #31
 800094c:	d426      	bmi.n	800099c <HAL_RCC_ClockConfig+0x68>
      }
    }
  }

  /* Decreasing the number of wait states because of lower CPU frequency */
  if(FLatency < (FLASH->ACR & FLASH_ACR_LATENCY))
 800094e:	4b43      	ldr	r3, [pc, #268]	; (8000a5c <HAL_RCC_ClockConfig+0x128>)
 8000950:	681a      	ldr	r2, [r3, #0]
 8000952:	f002 020f 	and.w	r2, r2, #15
 8000956:	428a      	cmp	r2, r1
 8000958:	d870      	bhi.n	8000a3c <HAL_RCC_ClockConfig+0x108>
      return HAL_ERROR;
    }
 }

  /*-------------------------- PCLK1 Configuration ---------------------------*/
  if(((RCC_ClkInitStruct->ClockType) & RCC_CLOCKTYPE_PCLK1) == RCC_CLOCKTYPE_PCLK1)
 800095a:	6820      	ldr	r0, [r4, #0]
 800095c:	0743      	lsls	r3, r0, #29
 800095e:	d475      	bmi.n	8000a4c <HAL_RCC_ClockConfig+0x118>
    assert_param(IS_RCC_PCLK(RCC_ClkInitStruct->APB1CLKDivider));
    MODIFY_REG(RCC->CFGR, RCC_CFGR_PPRE1, RCC_ClkInitStruct->APB1CLKDivider);
  }

  /*-------------------------- PCLK2 Configuration ---------------------------*/
  if(((RCC_ClkInitStruct->ClockType) & RCC_CLOCKTYPE_PCLK2) == RCC_CLOCKTYPE_PCLK2)
 8000960:	f010 0008 	ands.w	r0, r0, #8
 8000964:	d011      	beq.n	800098a <HAL_RCC_ClockConfig+0x56>
  {
    assert_param(IS_RCC_PCLK(RCC_ClkInitStruct->APB2CLKDivider));
    MODIFY_REG(RCC->CFGR, RCC_CFGR_PPRE2, ((RCC_ClkInitStruct->APB2CLKDivider) << 3U));
 8000966:	4a3e      	ldr	r2, [pc, #248]	; (8000a60 <HAL_RCC_ClockConfig+0x12c>)
 8000968:	6921      	ldr	r1, [r4, #16]
 800096a:	6893      	ldr	r3, [r2, #8]
 800096c:	f423 4360 	bic.w	r3, r3, #57344	; 0xe000
 8000970:	ea43 03c1 	orr.w	r3, r3, r1, lsl #3
 8000974:	6093      	str	r3, [r2, #8]
  //SystemCoreClock = HAL_RCC_GetSysClockFreq() >> AHBPrescTable[(RCC->CFGR & RCC_CFGR_HPRE)>> POSITION_VAL(RCC_CFGR_HPRE)];

  /* Configure the source of time base considering new system clocks settings*/
  //HAL_InitTick (TICK_INT_PRIORITY);

  return HAL_OK;
 8000976:	2000      	movs	r0, #0
 8000978:	e007      	b.n	800098a <HAL_RCC_ClockConfig+0x56>
    __HAL_FLASH_SET_LATENCY(FLatency);
 800097a:	b2ca      	uxtb	r2, r1
 800097c:	701a      	strb	r2, [r3, #0]
    if((FLASH->ACR & FLASH_ACR_LATENCY) != FLatency)
 800097e:	681b      	ldr	r3, [r3, #0]
 8000980:	f003 030f 	and.w	r3, r3, #15
 8000984:	428b      	cmp	r3, r1
 8000986:	d0dd      	beq.n	8000944 <HAL_RCC_ClockConfig+0x10>
      return HAL_ERROR;
 8000988:	2001      	movs	r0, #1
}
 800098a:	bdf8      	pop	{r3, r4, r5, r6, r7, pc}
    MODIFY_REG(RCC->CFGR, RCC_CFGR_HPRE, RCC_ClkInitStruct->AHBCLKDivider);
 800098c:	4834      	ldr	r0, [pc, #208]	; (8000a60 <HAL_RCC_ClockConfig+0x12c>)
 800098e:	68a5      	ldr	r5, [r4, #8]
 8000990:	6883      	ldr	r3, [r0, #8]
 8000992:	f023 03f0 	bic.w	r3, r3, #240	; 0xf0
 8000996:	432b      	orrs	r3, r5
 8000998:	6083      	str	r3, [r0, #8]
 800099a:	e7d6      	b.n	800094a <HAL_RCC_ClockConfig+0x16>
    if(RCC_ClkInitStruct->SYSCLKSource == RCC_SYSCLKSOURCE_HSE)
 800099c:	6862      	ldr	r2, [r4, #4]
 800099e:	4b30      	ldr	r3, [pc, #192]	; (8000a60 <HAL_RCC_ClockConfig+0x12c>)
 80009a0:	2a01      	cmp	r2, #1
 80009a2:	d11d      	bne.n	80009e0 <HAL_RCC_ClockConfig+0xac>
      if(__HAL_RCC_GET_FLAG(RCC_FLAG_HSERDY) == RESET)
 80009a4:	681b      	ldr	r3, [r3, #0]
 80009a6:	f413 3f00 	tst.w	r3, #131072	; 0x20000
      if(__HAL_RCC_GET_FLAG(RCC_FLAG_HSIRDY) == RESET)
 80009aa:	d0ed      	beq.n	8000988 <HAL_RCC_ClockConfig+0x54>
    __HAL_RCC_SYSCLK_CONFIG(RCC_ClkInitStruct->SYSCLKSource);
 80009ac:	4d2c      	ldr	r5, [pc, #176]	; (8000a60 <HAL_RCC_ClockConfig+0x12c>)
 80009ae:	68ab      	ldr	r3, [r5, #8]
 80009b0:	f023 0303 	bic.w	r3, r3, #3
 80009b4:	4313      	orrs	r3, r2
 80009b6:	60ab      	str	r3, [r5, #8]
    tickstart = HAL_GetTick();
 80009b8:	f7ff fe14 	bl	80005e4 <HAL_GetTick>
    if(RCC_ClkInitStruct->SYSCLKSource == RCC_SYSCLKSOURCE_HSE)
 80009bc:	6863      	ldr	r3, [r4, #4]
 80009be:	2b01      	cmp	r3, #1
    tickstart = HAL_GetTick();
 80009c0:	4606      	mov	r6, r0
        if((HAL_GetTick() - tickstart ) > CLOCKSWITCH_TIMEOUT_VALUE)
 80009c2:	f241 3788 	movw	r7, #5000	; 0x1388
    if(RCC_ClkInitStruct->SYSCLKSource == RCC_SYSCLKSOURCE_HSE)
 80009c6:	d115      	bne.n	80009f4 <HAL_RCC_ClockConfig+0xc0>
      while (__HAL_RCC_GET_SYSCLK_SOURCE() != RCC_SYSCLKSOURCE_STATUS_HSE)
 80009c8:	68ab      	ldr	r3, [r5, #8]
 80009ca:	f003 030c 	and.w	r3, r3, #12
 80009ce:	2b04      	cmp	r3, #4
 80009d0:	d0bd      	beq.n	800094e <HAL_RCC_ClockConfig+0x1a>
        if((HAL_GetTick() - tickstart ) > CLOCKSWITCH_TIMEOUT_VALUE)
 80009d2:	f7ff fe07 	bl	80005e4 <HAL_GetTick>
 80009d6:	1b80      	subs	r0, r0, r6
 80009d8:	42b8      	cmp	r0, r7
 80009da:	d9f5      	bls.n	80009c8 <HAL_RCC_ClockConfig+0x94>
          return HAL_TIMEOUT;
 80009dc:	2003      	movs	r0, #3
 80009de:	e7d4      	b.n	800098a <HAL_RCC_ClockConfig+0x56>
    else if((RCC_ClkInitStruct->SYSCLKSource == RCC_SYSCLKSOURCE_PLLCLK)   ||
 80009e0:	1e90      	subs	r0, r2, #2
 80009e2:	2801      	cmp	r0, #1
      if(__HAL_RCC_GET_FLAG(RCC_FLAG_PLLRDY) == RESET)
 80009e4:	681b      	ldr	r3, [r3, #0]
    else if((RCC_ClkInitStruct->SYSCLKSource == RCC_SYSCLKSOURCE_PLLCLK)   ||
 80009e6:	d802      	bhi.n	80009ee <HAL_RCC_ClockConfig+0xba>
      if(__HAL_RCC_GET_FLAG(RCC_FLAG_PLLRDY) == RESET)
 80009e8:	f013 7f00 	tst.w	r3, #33554432	; 0x2000000
 80009ec:	e7dd      	b.n	80009aa <HAL_RCC_ClockConfig+0x76>
      if(__HAL_RCC_GET_FLAG(RCC_FLAG_HSIRDY) == RESET)
 80009ee:	f013 0f02 	tst.w	r3, #2
 80009f2:	e7da      	b.n	80009aa <HAL_RCC_ClockConfig+0x76>
    else if(RCC_ClkInitStruct->SYSCLKSource == RCC_SYSCLKSOURCE_PLLCLK)
 80009f4:	2b02      	cmp	r3, #2
 80009f6:	d10a      	bne.n	8000a0e <HAL_RCC_ClockConfig+0xda>
      while (__HAL_RCC_GET_SYSCLK_SOURCE() != RCC_SYSCLKSOURCE_STATUS_PLLCLK)
 80009f8:	68ab      	ldr	r3, [r5, #8]
 80009fa:	f003 030c 	and.w	r3, r3, #12
 80009fe:	2b08      	cmp	r3, #8
 8000a00:	d0a5      	beq.n	800094e <HAL_RCC_ClockConfig+0x1a>
        if((HAL_GetTick() - tickstart ) > CLOCKSWITCH_TIMEOUT_VALUE)
 8000a02:	f7ff fdef 	bl	80005e4 <HAL_GetTick>
 8000a06:	1b80      	subs	r0, r0, r6
 8000a08:	42b8      	cmp	r0, r7
 8000a0a:	d9f5      	bls.n	80009f8 <HAL_RCC_ClockConfig+0xc4>
 8000a0c:	e7e6      	b.n	80009dc <HAL_RCC_ClockConfig+0xa8>
    else if(RCC_ClkInitStruct->SYSCLKSource == RCC_SYSCLKSOURCE_PLLRCLK)
 8000a0e:	2b03      	cmp	r3, #3
 8000a10:	d10f      	bne.n	8000a32 <HAL_RCC_ClockConfig+0xfe>
      while (__HAL_RCC_GET_SYSCLK_SOURCE() != RCC_SYSCLKSOURCE_STATUS_PLLRCLK)
 8000a12:	68ab      	ldr	r3, [r5, #8]
 8000a14:	f003 030c 	and.w	r3, r3, #12
 8000a18:	2b0c      	cmp	r3, #12
 8000a1a:	d098      	beq.n	800094e <HAL_RCC_ClockConfig+0x1a>
        if((HAL_GetTick() - tickstart ) > CLOCKSWITCH_TIMEOUT_VALUE)
 8000a1c:	f7ff fde2 	bl	80005e4 <HAL_GetTick>
 8000a20:	1b80      	subs	r0, r0, r6
 8000a22:	42b8      	cmp	r0, r7
 8000a24:	d9f5      	bls.n	8000a12 <HAL_RCC_ClockConfig+0xde>
 8000a26:	e7d9      	b.n	80009dc <HAL_RCC_ClockConfig+0xa8>
        if((HAL_GetTick() - tickstart ) > CLOCKSWITCH_TIMEOUT_VALUE)
 8000a28:	f7ff fddc 	bl	80005e4 <HAL_GetTick>
 8000a2c:	1b80      	subs	r0, r0, r6
 8000a2e:	42b8      	cmp	r0, r7
 8000a30:	d8d4      	bhi.n	80009dc <HAL_RCC_ClockConfig+0xa8>
      while(__HAL_RCC_GET_SYSCLK_SOURCE() != RCC_SYSCLKSOURCE_STATUS_HSI)
 8000a32:	68ab      	ldr	r3, [r5, #8]
 8000a34:	f013 0f0c 	tst.w	r3, #12
 8000a38:	d1f6      	bne.n	8000a28 <HAL_RCC_ClockConfig+0xf4>
 8000a3a:	e788      	b.n	800094e <HAL_RCC_ClockConfig+0x1a>
    __HAL_FLASH_SET_LATENCY(FLatency);
 8000a3c:	b2ca      	uxtb	r2, r1
 8000a3e:	701a      	strb	r2, [r3, #0]
    if((FLASH->ACR & FLASH_ACR_LATENCY) != FLatency)
 8000a40:	681b      	ldr	r3, [r3, #0]
 8000a42:	f003 030f 	and.w	r3, r3, #15
 8000a46:	428b      	cmp	r3, r1
 8000a48:	d19e      	bne.n	8000988 <HAL_RCC_ClockConfig+0x54>
 8000a4a:	e786      	b.n	800095a <HAL_RCC_ClockConfig+0x26>
    MODIFY_REG(RCC->CFGR, RCC_CFGR_PPRE1, RCC_ClkInitStruct->APB1CLKDivider);
 8000a4c:	4904      	ldr	r1, [pc, #16]	; (8000a60 <HAL_RCC_ClockConfig+0x12c>)
 8000a4e:	68e3      	ldr	r3, [r4, #12]
 8000a50:	688a      	ldr	r2, [r1, #8]
 8000a52:	f422 52e0 	bic.w	r2, r2, #7168	; 0x1c00
 8000a56:	431a      	orrs	r2, r3
 8000a58:	608a      	str	r2, [r1, #8]
 8000a5a:	e781      	b.n	8000960 <HAL_RCC_ClockConfig+0x2c>
 8000a5c:	40023c00 	.word	0x40023c00
 8000a60:	40023800 	.word	0x40023800

08000a64 <HAL_GPIO_Init>:
  * @param  GPIO_Init: pointer to a GPIO_InitTypeDef structure that contains
  *         the configuration information for the specified GPIO peripheral.
  * @retval None
  */
void HAL_GPIO_Init(GPIO_TypeDef  *GPIOx, GPIO_InitTypeDef *GPIO_Init)
{
 8000a64:	e92d 4ff7 	stmdb	sp!, {r0, r1, r2, r4, r5, r6, r7, r8, r9, sl, fp, lr}
      /*--------------------- EXTI Mode Configuration ------------------------*/
      /* Configure the External Interrupt or event for the current IO */
      if((GPIO_Init->Mode & EXTI_MODE) == EXTI_MODE)
      {
        /* Enable SYSCFG Clock */
        __HAL_RCC_SYSCFG_CLK_ENABLE();
 8000a68:	f8df 81b4 	ldr.w	r8, [pc, #436]	; 8000c20 <HAL_GPIO_Init+0x1bc>
        temp &= ~(0x0FU << (4U * (position & 0x03U)));
        temp |= ((uint32_t)(GPIO_GET_INDEX(GPIOx)) << (4U * (position & 0x03U)));
        SYSCFG->EXTICR[position >> 2U] = temp;

        /* Clear EXTI line configuration */
        temp = EXTI->IMR;
 8000a6c:	4a6d      	ldr	r2, [pc, #436]	; (8000c24 <HAL_GPIO_Init+0x1c0>)
        temp |= ((uint32_t)(GPIO_GET_INDEX(GPIOx)) << (4U * (position & 0x03U)));
 8000a6e:	f8df 91b8 	ldr.w	r9, [pc, #440]	; 8000c28 <HAL_GPIO_Init+0x1c4>
  for(position = 0U; position < GPIO_NUMBER; position++)
 8000a72:	2300      	movs	r3, #0
    iocurrent = (uint32_t)(GPIO_Init->Pin) & ioposition;
 8000a74:	680c      	ldr	r4, [r1, #0]
    ioposition = 0x01U << position;
 8000a76:	2701      	movs	r7, #1
 8000a78:	409f      	lsls	r7, r3
    iocurrent = (uint32_t)(GPIO_Init->Pin) & ioposition;
 8000a7a:	ea07 0504 	and.w	r5, r7, r4
    if(iocurrent == ioposition)
 8000a7e:	ea37 0404 	bics.w	r4, r7, r4
 8000a82:	f040 80b9 	bne.w	8000bf8 <HAL_GPIO_Init+0x194>
      if((GPIO_Init->Mode == GPIO_MODE_AF_PP) || (GPIO_Init->Mode == GPIO_MODE_AF_OD))
 8000a86:	684c      	ldr	r4, [r1, #4]
 8000a88:	f024 0a10 	bic.w	sl, r4, #16
 8000a8c:	f1ba 0f02 	cmp.w	sl, #2
 8000a90:	d116      	bne.n	8000ac0 <HAL_GPIO_Init+0x5c>
        temp = GPIOx->AFR[position >> 3U];
 8000a92:	ea4f 0ed3 	mov.w	lr, r3, lsr #3
 8000a96:	eb00 0e8e 	add.w	lr, r0, lr, lsl #2
        temp &= ~(0xFU << ((uint32_t)(position & 0x07U) * 4U)) ;
 8000a9a:	f003 0b07 	and.w	fp, r3, #7
        temp = GPIOx->AFR[position >> 3U];
 8000a9e:	f8de 6020 	ldr.w	r6, [lr, #32]
        temp &= ~(0xFU << ((uint32_t)(position & 0x07U) * 4U)) ;
 8000aa2:	ea4f 0b8b 	mov.w	fp, fp, lsl #2
 8000aa6:	f04f 0c0f 	mov.w	ip, #15
 8000aaa:	fa0c fc0b 	lsl.w	ip, ip, fp
 8000aae:	ea26 0c0c 	bic.w	ip, r6, ip
        temp |= ((uint32_t)(GPIO_Init->Alternate) << (((uint32_t)position & 0x07U) * 4U));
 8000ab2:	690e      	ldr	r6, [r1, #16]
 8000ab4:	fa06 f60b 	lsl.w	r6, r6, fp
 8000ab8:	ea46 060c 	orr.w	r6, r6, ip
        GPIOx->AFR[position >> 3U] = temp;
 8000abc:	f8ce 6020 	str.w	r6, [lr, #32]
      temp = GPIOx->MODER;
 8000ac0:	f8d0 b000 	ldr.w	fp, [r0]
      temp &= ~(GPIO_MODER_MODER0 << (position * 2U));
 8000ac4:	ea4f 0e43 	mov.w	lr, r3, lsl #1
 8000ac8:	f04f 0c03 	mov.w	ip, #3
 8000acc:	fa0c fc0e 	lsl.w	ip, ip, lr
 8000ad0:	ea2b 0b0c 	bic.w	fp, fp, ip
 8000ad4:	ea6f 060c 	mvn.w	r6, ip
      temp |= ((GPIO_Init->Mode & GPIO_MODE) << (position * 2U));
 8000ad8:	f004 0c03 	and.w	ip, r4, #3
 8000adc:	fa0c fc0e 	lsl.w	ip, ip, lr
      if((GPIO_Init->Mode == GPIO_MODE_OUTPUT_PP) || (GPIO_Init->Mode == GPIO_MODE_AF_PP) ||
 8000ae0:	f10a 3aff 	add.w	sl, sl, #4294967295	; 0xffffffff
      temp |= ((GPIO_Init->Mode & GPIO_MODE) << (position * 2U));
 8000ae4:	ea4c 0c0b 	orr.w	ip, ip, fp
      if((GPIO_Init->Mode == GPIO_MODE_OUTPUT_PP) || (GPIO_Init->Mode == GPIO_MODE_AF_PP) ||
 8000ae8:	f1ba 0f01 	cmp.w	sl, #1
      GPIOx->MODER = temp;
 8000aec:	f8c0 c000 	str.w	ip, [r0]
      if((GPIO_Init->Mode == GPIO_MODE_OUTPUT_PP) || (GPIO_Init->Mode == GPIO_MODE_AF_PP) ||
 8000af0:	d816      	bhi.n	8000b20 <HAL_GPIO_Init+0xbc>
        temp = GPIOx->OSPEEDR;
 8000af2:	f8d0 c008 	ldr.w	ip, [r0, #8]
        temp |= (GPIO_Init->Speed << (position * 2U));
 8000af6:	f8d1 a00c 	ldr.w	sl, [r1, #12]
        temp &= ~(GPIO_OSPEEDER_OSPEEDR0 << (position * 2U));
 8000afa:	ea06 0c0c 	and.w	ip, r6, ip
        temp |= (GPIO_Init->Speed << (position * 2U));
 8000afe:	fa0a fa0e 	lsl.w	sl, sl, lr
 8000b02:	ea4a 0c0c 	orr.w	ip, sl, ip
        GPIOx->OSPEEDR = temp;
 8000b06:	f8c0 c008 	str.w	ip, [r0, #8]
        temp = GPIOx->OTYPER;
 8000b0a:	f8d0 c004 	ldr.w	ip, [r0, #4]
        temp &= ~(GPIO_OTYPER_OT_0 << position) ;
 8000b0e:	ea2c 0707 	bic.w	r7, ip, r7
        temp |= (((GPIO_Init->Mode & GPIO_OUTPUT_TYPE) >> 4U) << position);
 8000b12:	f3c4 1c00 	ubfx	ip, r4, #4, #1
 8000b16:	fa0c fc03 	lsl.w	ip, ip, r3
 8000b1a:	ea4c 0707 	orr.w	r7, ip, r7
        GPIOx->OTYPER = temp;
 8000b1e:	6047      	str	r7, [r0, #4]
      temp = GPIOx->PUPDR;
 8000b20:	68c7      	ldr	r7, [r0, #12]
      temp &= ~(GPIO_PUPDR_PUPDR0 << (position * 2U));
 8000b22:	4037      	ands	r7, r6
      temp |= ((GPIO_Init->Pull) << (position * 2U));
 8000b24:	688e      	ldr	r6, [r1, #8]
 8000b26:	fa06 f60e 	lsl.w	r6, r6, lr
 8000b2a:	433e      	orrs	r6, r7
      GPIOx->PUPDR = temp;
 8000b2c:	60c6      	str	r6, [r0, #12]
      if((GPIO_Init->Mode & EXTI_MODE) == EXTI_MODE)
 8000b2e:	00e6      	lsls	r6, r4, #3
 8000b30:	d562      	bpl.n	8000bf8 <HAL_GPIO_Init+0x194>
        __HAL_RCC_SYSCFG_CLK_ENABLE();
 8000b32:	2600      	movs	r6, #0
 8000b34:	9601      	str	r6, [sp, #4]
 8000b36:	f8d8 7044 	ldr.w	r7, [r8, #68]	; 0x44
 8000b3a:	f447 4780 	orr.w	r7, r7, #16384	; 0x4000
 8000b3e:	f8c8 7044 	str.w	r7, [r8, #68]	; 0x44
 8000b42:	f8d8 7044 	ldr.w	r7, [r8, #68]	; 0x44
 8000b46:	f407 4780 	and.w	r7, r7, #16384	; 0x4000
 8000b4a:	9701      	str	r7, [sp, #4]
 8000b4c:	9f01      	ldr	r7, [sp, #4]
        temp = SYSCFG->EXTICR[position >> 2U];
 8000b4e:	f023 0703 	bic.w	r7, r3, #3
 8000b52:	f107 4780 	add.w	r7, r7, #1073741824	; 0x40000000
 8000b56:	f507 379c 	add.w	r7, r7, #79872	; 0x13800
        temp &= ~(0x0FU << (4U * (position & 0x03U)));
 8000b5a:	f003 0e03 	and.w	lr, r3, #3
        temp = SYSCFG->EXTICR[position >> 2U];
 8000b5e:	f8d7 a008 	ldr.w	sl, [r7, #8]
        temp &= ~(0x0FU << (4U * (position & 0x03U)));
 8000b62:	ea4f 0e8e 	mov.w	lr, lr, lsl #2
 8000b66:	f04f 0c0f 	mov.w	ip, #15
 8000b6a:	fa0c fc0e 	lsl.w	ip, ip, lr
 8000b6e:	ea2a 0c0c 	bic.w	ip, sl, ip
        temp |= ((uint32_t)(GPIO_GET_INDEX(GPIOx)) << (4U * (position & 0x03U)));
 8000b72:	f8df a0b8 	ldr.w	sl, [pc, #184]	; 8000c2c <HAL_GPIO_Init+0x1c8>
 8000b76:	4550      	cmp	r0, sl
 8000b78:	d01d      	beq.n	8000bb6 <HAL_GPIO_Init+0x152>
 8000b7a:	f106 4680 	add.w	r6, r6, #1073741824	; 0x40000000
 8000b7e:	f506 3601 	add.w	r6, r6, #132096	; 0x20400
 8000b82:	42b0      	cmp	r0, r6
 8000b84:	d03f      	beq.n	8000c06 <HAL_GPIO_Init+0x1a2>
 8000b86:	f506 6680 	add.w	r6, r6, #1024	; 0x400
 8000b8a:	42b0      	cmp	r0, r6
 8000b8c:	d03d      	beq.n	8000c0a <HAL_GPIO_Init+0x1a6>
 8000b8e:	f506 6680 	add.w	r6, r6, #1024	; 0x400
 8000b92:	42b0      	cmp	r0, r6
 8000b94:	d03b      	beq.n	8000c0e <HAL_GPIO_Init+0x1aa>
 8000b96:	f506 6680 	add.w	r6, r6, #1024	; 0x400
 8000b9a:	42b0      	cmp	r0, r6
 8000b9c:	d039      	beq.n	8000c12 <HAL_GPIO_Init+0x1ae>
 8000b9e:	4548      	cmp	r0, r9
 8000ba0:	d039      	beq.n	8000c16 <HAL_GPIO_Init+0x1b2>
 8000ba2:	f506 6600 	add.w	r6, r6, #2048	; 0x800
 8000ba6:	42b0      	cmp	r0, r6
 8000ba8:	d037      	beq.n	8000c1a <HAL_GPIO_Init+0x1b6>
 8000baa:	f506 6680 	add.w	r6, r6, #1024	; 0x400
 8000bae:	42b0      	cmp	r0, r6
 8000bb0:	bf0c      	ite	eq
 8000bb2:	2607      	moveq	r6, #7
 8000bb4:	2608      	movne	r6, #8
 8000bb6:	fa06 f60e 	lsl.w	r6, r6, lr
 8000bba:	ea46 060c 	orr.w	r6, r6, ip
        SYSCFG->EXTICR[position >> 2U] = temp;
 8000bbe:	60be      	str	r6, [r7, #8]
        temp = EXTI->IMR;
 8000bc0:	6816      	ldr	r6, [r2, #0]
        temp &= ~((uint32_t)iocurrent);
 8000bc2:	43ef      	mvns	r7, r5
        if((GPIO_Init->Mode & GPIO_MODE_IT) == GPIO_MODE_IT)
 8000bc4:	f414 3f80 	tst.w	r4, #65536	; 0x10000
        temp &= ~((uint32_t)iocurrent);
 8000bc8:	bf0c      	ite	eq
 8000bca:	403e      	andeq	r6, r7
        {
          temp |= iocurrent;
 8000bcc:	432e      	orrne	r6, r5
        }
        EXTI->IMR = temp;
 8000bce:	6016      	str	r6, [r2, #0]

        temp = EXTI->EMR;
 8000bd0:	6856      	ldr	r6, [r2, #4]
        temp &= ~((uint32_t)iocurrent);
        if((GPIO_Init->Mode & GPIO_MODE_EVT) == GPIO_MODE_EVT)
 8000bd2:	f414 3f00 	tst.w	r4, #131072	; 0x20000
        temp &= ~((uint32_t)iocurrent);
 8000bd6:	bf0c      	ite	eq
 8000bd8:	403e      	andeq	r6, r7
        {
          temp |= iocurrent;
 8000bda:	432e      	orrne	r6, r5
        }
        EXTI->EMR = temp;
 8000bdc:	6056      	str	r6, [r2, #4]

        /* Clear Rising Falling edge configuration */
        temp = EXTI->RTSR;
 8000bde:	6896      	ldr	r6, [r2, #8]
        temp &= ~((uint32_t)iocurrent);
        if((GPIO_Init->Mode & RISING_EDGE) == RISING_EDGE)
 8000be0:	f414 1f80 	tst.w	r4, #1048576	; 0x100000
        temp &= ~((uint32_t)iocurrent);
 8000be4:	bf0c      	ite	eq
 8000be6:	403e      	andeq	r6, r7
        {
          temp |= iocurrent;
 8000be8:	432e      	orrne	r6, r5
        }
        EXTI->RTSR = temp;
 8000bea:	6096      	str	r6, [r2, #8]

        temp = EXTI->FTSR;
 8000bec:	68d6      	ldr	r6, [r2, #12]
        temp &= ~((uint32_t)iocurrent);
        if((GPIO_Init->Mode & FALLING_EDGE) == FALLING_EDGE)
 8000bee:	02a4      	lsls	r4, r4, #10
        temp &= ~((uint32_t)iocurrent);
 8000bf0:	bf54      	ite	pl
 8000bf2:	403e      	andpl	r6, r7
        {
          temp |= iocurrent;
 8000bf4:	432e      	orrmi	r6, r5
        }
        EXTI->FTSR = temp;
 8000bf6:	60d6      	str	r6, [r2, #12]
  for(position = 0U; position < GPIO_NUMBER; position++)
 8000bf8:	3301      	adds	r3, #1
 8000bfa:	2b10      	cmp	r3, #16
 8000bfc:	f47f af3a 	bne.w	8000a74 <HAL_GPIO_Init+0x10>
      }
    }
  }
}
 8000c00:	b003      	add	sp, #12
 8000c02:	e8bd 8ff0 	ldmia.w	sp!, {r4, r5, r6, r7, r8, r9, sl, fp, pc}
        temp |= ((uint32_t)(GPIO_GET_INDEX(GPIOx)) << (4U * (position & 0x03U)));
 8000c06:	2601      	movs	r6, #1
 8000c08:	e7d5      	b.n	8000bb6 <HAL_GPIO_Init+0x152>
 8000c0a:	2602      	movs	r6, #2
 8000c0c:	e7d3      	b.n	8000bb6 <HAL_GPIO_Init+0x152>
 8000c0e:	2603      	movs	r6, #3
 8000c10:	e7d1      	b.n	8000bb6 <HAL_GPIO_Init+0x152>
 8000c12:	2604      	movs	r6, #4
 8000c14:	e7cf      	b.n	8000bb6 <HAL_GPIO_Init+0x152>
 8000c16:	2605      	movs	r6, #5
 8000c18:	e7cd      	b.n	8000bb6 <HAL_GPIO_Init+0x152>
 8000c1a:	2606      	movs	r6, #6
 8000c1c:	e7cb      	b.n	8000bb6 <HAL_GPIO_Init+0x152>
 8000c1e:	bf00      	nop
 8000c20:	40023800 	.word	0x40023800
 8000c24:	40013c00 	.word	0x40013c00
 8000c28:	40021400 	.word	0x40021400
 8000c2c:	40020000 	.word	0x40020000

08000c30 <HAL_GPIO_WritePin>:
{
  /* Check the parameters */
  assert_param(IS_GPIO_PIN(GPIO_Pin));
  assert_param(IS_GPIO_PIN_ACTION(PinState));

  if(PinState != GPIO_PIN_RESET)
 8000c30:	b10a      	cbz	r2, 8000c36 <HAL_GPIO_WritePin+0x6>
  {
    GPIOx->BSRR = GPIO_Pin;
  }
  else
  {
    GPIOx->BSRR = (uint32_t)GPIO_Pin << 16U;
 8000c32:	6181      	str	r1, [r0, #24]
  }
}
 8000c34:	4770      	bx	lr
    GPIOx->BSRR = (uint32_t)GPIO_Pin << 16U;
 8000c36:	0409      	lsls	r1, r1, #16
 8000c38:	e7fb      	b.n	8000c32 <HAL_GPIO_WritePin+0x2>
 8000c3a:	0000      	movs	r0, r0

08000c3c <HAL_UART_Init>:
  * @param  huart: pointer to a UART_HandleTypeDef structure that contains
  *                the configuration information for the specified UART module.
  * @retval HAL status
  */
HAL_StatusTypeDef HAL_UART_Init(UART_HandleTypeDef *huart)
{
 8000c3c:	b570      	push	{r4, r5, r6, lr}
  /* Check the UART handle allocation */
  if(huart == NULL)
 8000c3e:	2800      	cmp	r0, #0
 8000c40:	d067      	beq.n	8000d12 <HAL_UART_Init+0xd6>
    assert_param(IS_UART_INSTANCE(huart->Instance));
  }
  assert_param(IS_UART_WORD_LENGTH(huart->Init.WordLength));
  assert_param(IS_UART_OVERSAMPLING(huart->Init.OverSampling));

  if(huart->gState == HAL_UART_STATE_RESET)
 8000c42:	f890 3039 	ldrb.w	r3, [r0, #57]	; 0x39
 8000c46:	f003 02ff 	and.w	r2, r3, #255	; 0xff
 8000c4a:	b90b      	cbnz	r3, 8000c50 <HAL_UART_Init+0x14>
  {
    /* Allocate lock resource and initialize it */
    huart->Lock = HAL_UNLOCKED;
 8000c4c:	f880 2038 	strb.w	r2, [r0, #56]	; 0x38
  }

  huart->gState = HAL_UART_STATE_BUSY;

  /* Disable the peripheral */
  __HAL_UART_DISABLE(huart);
 8000c50:	6801      	ldr	r1, [r0, #0]
  tmpreg |= (uint32_t)huart->Init.StopBits;
 8000c52:	68c2      	ldr	r2, [r0, #12]
  tmpreg |= (uint32_t)huart->Init.WordLength | huart->Init.Parity | huart->Init.Mode | huart->Init.OverSampling;
 8000c54:	6905      	ldr	r5, [r0, #16]
 8000c56:	69c4      	ldr	r4, [r0, #28]
  huart->gState = HAL_UART_STATE_BUSY;
 8000c58:	2324      	movs	r3, #36	; 0x24
 8000c5a:	f880 3039 	strb.w	r3, [r0, #57]	; 0x39
  __HAL_UART_DISABLE(huart);
 8000c5e:	68cb      	ldr	r3, [r1, #12]
 8000c60:	f423 5300 	bic.w	r3, r3, #8192	; 0x2000
 8000c64:	60cb      	str	r3, [r1, #12]
  tmpreg = huart->Instance->CR2;
 8000c66:	690b      	ldr	r3, [r1, #16]
  tmpreg &= (uint32_t)~((uint32_t)USART_CR2_STOP);
 8000c68:	f423 5340 	bic.w	r3, r3, #12288	; 0x3000
  tmpreg |= (uint32_t)huart->Init.StopBits;
 8000c6c:	4313      	orrs	r3, r2
  WRITE_REG(huart->Instance->CR2, (uint32_t)tmpreg);
 8000c6e:	610b      	str	r3, [r1, #16]
  tmpreg |= (uint32_t)huart->Init.WordLength | huart->Init.Parity | huart->Init.Mode | huart->Init.OverSampling;
 8000c70:	6883      	ldr	r3, [r0, #8]
  tmpreg = huart->Instance->CR1;
 8000c72:	68ca      	ldr	r2, [r1, #12]
  tmpreg |= (uint32_t)huart->Init.WordLength | huart->Init.Parity | huart->Init.Mode | huart->Init.OverSampling;
 8000c74:	432b      	orrs	r3, r5
 8000c76:	6945      	ldr	r5, [r0, #20]
  tmpreg &= (uint32_t)~((uint32_t)(USART_CR1_M | USART_CR1_PCE | USART_CR1_PS | USART_CR1_TE | \
 8000c78:	f422 4216 	bic.w	r2, r2, #38400	; 0x9600
  tmpreg |= (uint32_t)huart->Init.WordLength | huart->Init.Parity | huart->Init.Mode | huart->Init.OverSampling;
 8000c7c:	432b      	orrs	r3, r5
  tmpreg &= (uint32_t)~((uint32_t)(USART_CR1_M | USART_CR1_PCE | USART_CR1_PS | USART_CR1_TE | \
 8000c7e:	f022 020c 	bic.w	r2, r2, #12
  tmpreg |= (uint32_t)huart->Init.WordLength | huart->Init.Parity | huart->Init.Mode | huart->Init.OverSampling;
 8000c82:	4323      	orrs	r3, r4
 8000c84:	4313      	orrs	r3, r2
  WRITE_REG(huart->Instance->CR1, (uint32_t)tmpreg);
 8000c86:	60cb      	str	r3, [r1, #12]
  tmpreg = huart->Instance->CR3;
 8000c88:	694b      	ldr	r3, [r1, #20]
  tmpreg |= huart->Init.HwFlowCtl;
 8000c8a:	6982      	ldr	r2, [r0, #24]
  tmpreg &= (uint32_t)~((uint32_t)(USART_CR3_RTSE | USART_CR3_CTSE));
 8000c8c:	f423 7340 	bic.w	r3, r3, #768	; 0x300
  tmpreg |= huart->Init.HwFlowCtl;
 8000c90:	4313      	orrs	r3, r2
  if(huart->Init.OverSampling == UART_OVERSAMPLING_8)
 8000c92:	f5b4 4f00 	cmp.w	r4, #32768	; 0x8000
  WRITE_REG(huart->Instance->CR3, (uint32_t)tmpreg);
 8000c96:	614b      	str	r3, [r1, #20]
  if(huart->Init.OverSampling == UART_OVERSAMPLING_8)
 8000c98:	4a1f      	ldr	r2, [pc, #124]	; (8000d18 <HAL_UART_Init+0xdc>)
      huart->Instance->BRR = UART_BRR_SAMPLING8(HAL_RCC_GetPCLK1Freq(), huart->Init.BaudRate);
 8000c9a:	6843      	ldr	r3, [r0, #4]
 8000c9c:	f04f 0564 	mov.w	r5, #100	; 0x64
  if(huart->Init.OverSampling == UART_OVERSAMPLING_8)
 8000ca0:	d128      	bne.n	8000cf4 <HAL_UART_Init+0xb8>
      huart->Instance->BRR = UART_BRR_SAMPLING8(HAL_RCC_GetPCLK1Freq(), huart->Init.BaudRate);
 8000ca2:	005b      	lsls	r3, r3, #1
 8000ca4:	fbb2 f2f3 	udiv	r2, r2, r3
 8000ca8:	fbb2 f6f5 	udiv	r6, r2, r5
 8000cac:	fb05 2216 	mls	r2, r5, r6, r2
 8000cb0:	00d3      	lsls	r3, r2, #3
 8000cb2:	3332      	adds	r3, #50	; 0x32
 8000cb4:	fbb3 f3f5 	udiv	r3, r3, r5
 8000cb8:	f003 0207 	and.w	r2, r3, #7
 8000cbc:	005b      	lsls	r3, r3, #1
 8000cbe:	eb02 1206 	add.w	r2, r2, r6, lsl #4
      huart->Instance->BRR = UART_BRR_SAMPLING8(HAL_RCC_GetPCLK2Freq(), huart->Init.BaudRate);
 8000cc2:	f403 73f8 	and.w	r3, r3, #496	; 0x1f0
 8000cc6:	4413      	add	r3, r2
 8000cc8:	608b      	str	r3, [r1, #8]
  UART_SetConfig(huart);

  /* In asynchronous mode, the following bits must be kept cleared:
     - LINEN and CLKEN bits in the USART_CR2 register,
     - SCEN, HDSEL and IREN  bits in the USART_CR3 register.*/
  CLEAR_BIT(huart->Instance->CR2, (USART_CR2_LINEN | USART_CR2_CLKEN));
 8000cca:	690b      	ldr	r3, [r1, #16]
 8000ccc:	f423 4390 	bic.w	r3, r3, #18432	; 0x4800
 8000cd0:	610b      	str	r3, [r1, #16]
  CLEAR_BIT(huart->Instance->CR3, (USART_CR3_SCEN | USART_CR3_HDSEL | USART_CR3_IREN));
 8000cd2:	694b      	ldr	r3, [r1, #20]
 8000cd4:	f023 032a 	bic.w	r3, r3, #42	; 0x2a
 8000cd8:	614b      	str	r3, [r1, #20]

  /* Enable the peripheral */
  __HAL_UART_ENABLE(huart);
 8000cda:	68cb      	ldr	r3, [r1, #12]
 8000cdc:	f443 5300 	orr.w	r3, r3, #8192	; 0x2000
 8000ce0:	60cb      	str	r3, [r1, #12]

  /* Initialize the UART state */
  huart->ErrorCode = HAL_UART_ERROR_NONE;
  huart->gState= HAL_UART_STATE_READY;
 8000ce2:	2220      	movs	r2, #32
  huart->ErrorCode = HAL_UART_ERROR_NONE;
 8000ce4:	2300      	movs	r3, #0
 8000ce6:	63c3      	str	r3, [r0, #60]	; 0x3c
  huart->gState= HAL_UART_STATE_READY;
 8000ce8:	f880 2039 	strb.w	r2, [r0, #57]	; 0x39
  huart->RxState= HAL_UART_STATE_READY;
 8000cec:	f880 203a 	strb.w	r2, [r0, #58]	; 0x3a

  return HAL_OK;
 8000cf0:	4618      	mov	r0, r3
}
 8000cf2:	bd70      	pop	{r4, r5, r6, pc}
      huart->Instance->BRR = UART_BRR_SAMPLING16(HAL_RCC_GetPCLK1Freq(), huart->Init.BaudRate);
 8000cf4:	009b      	lsls	r3, r3, #2
 8000cf6:	fbb2 f2f3 	udiv	r2, r2, r3
 8000cfa:	fbb2 f6f5 	udiv	r6, r2, r5
 8000cfe:	fb05 2316 	mls	r3, r5, r6, r2
 8000d02:	011b      	lsls	r3, r3, #4
 8000d04:	3332      	adds	r3, #50	; 0x32
 8000d06:	fbb3 f3f5 	udiv	r3, r3, r5
 8000d0a:	eb03 1306 	add.w	r3, r3, r6, lsl #4
      huart->Instance->BRR = UART_BRR_SAMPLING16(HAL_RCC_GetPCLK2Freq(), huart->Init.BaudRate);
 8000d0e:	608b      	str	r3, [r1, #8]
 8000d10:	e7db      	b.n	8000cca <HAL_UART_Init+0x8e>
    return HAL_ERROR;
 8000d12:	2001      	movs	r0, #1
 8000d14:	e7ed      	b.n	8000cf2 <HAL_UART_Init+0xb6>
 8000d16:	bf00      	nop
 8000d18:	0afb6e90 	.word	0x0afb6e90

08000d1c <HAL_UART_Transmit>:
{
  uint16_t* tmp;
  //uint32_t tickstart = 0U;

  /* Check that a Tx process is not already ongoing */
  if(huart->gState == HAL_UART_STATE_READY)
 8000d1c:	f890 3039 	ldrb.w	r3, [r0, #57]	; 0x39
 8000d20:	2b20      	cmp	r3, #32
 8000d22:	d13e      	bne.n	8000da2 <HAL_UART_Transmit+0x86>
  {
    if((pData == NULL ) || (Size == 0))
 8000d24:	2900      	cmp	r1, #0
 8000d26:	d03a      	beq.n	8000d9e <HAL_UART_Transmit+0x82>
 8000d28:	2a00      	cmp	r2, #0
 8000d2a:	d038      	beq.n	8000d9e <HAL_UART_Transmit+0x82>
    {
      return  HAL_ERROR;
    }

    /* Process Locked */
    __HAL_LOCK(huart);
 8000d2c:	f890 3038 	ldrb.w	r3, [r0, #56]	; 0x38
 8000d30:	2b01      	cmp	r3, #1
 8000d32:	d036      	beq.n	8000da2 <HAL_UART_Transmit+0x86>
 8000d34:	2301      	movs	r3, #1
 8000d36:	f880 3038 	strb.w	r3, [r0, #56]	; 0x38

    huart->ErrorCode = HAL_UART_ERROR_NONE;
 8000d3a:	2300      	movs	r3, #0
 8000d3c:	63c3      	str	r3, [r0, #60]	; 0x3c
    huart->gState = HAL_UART_STATE_BUSY_TX;
 8000d3e:	2321      	movs	r3, #33	; 0x21
 8000d40:	f880 3039 	strb.w	r3, [r0, #57]	; 0x39
  while((__HAL_UART_GET_FLAG(huart, Flag) ? SET : RESET) == Status);
 8000d44:	6803      	ldr	r3, [r0, #0]

    /* Init tickstart for timeout managment */
    //tickstart = HAL_GetTick();

    huart->TxXferSize = Size;
 8000d46:	8482      	strh	r2, [r0, #36]	; 0x24
    huart->TxXferCount = Size;
 8000d48:	84c2      	strh	r2, [r0, #38]	; 0x26
    while(huart->TxXferCount > 0U)
 8000d4a:	8cc2      	ldrh	r2, [r0, #38]	; 0x26
 8000d4c:	b292      	uxth	r2, r2
 8000d4e:	b952      	cbnz	r2, 8000d66 <HAL_UART_Transmit+0x4a>
  while((__HAL_UART_GET_FLAG(huart, Flag) ? SET : RESET) == Status);
 8000d50:	681a      	ldr	r2, [r3, #0]
 8000d52:	0652      	lsls	r2, r2, #25
 8000d54:	d5fc      	bpl.n	8000d50 <HAL_UART_Transmit+0x34>
    {
      return HAL_TIMEOUT;
    }

    /* At end of Tx process, restore huart->gState to Ready */
      huart->gState = HAL_UART_STATE_READY;
 8000d56:	2320      	movs	r3, #32
 8000d58:	f880 3039 	strb.w	r3, [r0, #57]	; 0x39

    /* Process Unlocked */
    __HAL_UNLOCK(huart);
 8000d5c:	2300      	movs	r3, #0
 8000d5e:	f880 3038 	strb.w	r3, [r0, #56]	; 0x38

    return HAL_OK;
 8000d62:	4618      	mov	r0, r3
 8000d64:	4770      	bx	lr
      huart->TxXferCount--;
 8000d66:	8cc2      	ldrh	r2, [r0, #38]	; 0x26
 8000d68:	3a01      	subs	r2, #1
 8000d6a:	b292      	uxth	r2, r2
 8000d6c:	84c2      	strh	r2, [r0, #38]	; 0x26
      if(huart->Init.WordLength == UART_WORDLENGTH_9B)
 8000d6e:	6882      	ldr	r2, [r0, #8]
 8000d70:	f5b2 5f80 	cmp.w	r2, #4096	; 0x1000
 8000d74:	d10c      	bne.n	8000d90 <HAL_UART_Transmit+0x74>
  while((__HAL_UART_GET_FLAG(huart, Flag) ? SET : RESET) == Status);
 8000d76:	681a      	ldr	r2, [r3, #0]
 8000d78:	0612      	lsls	r2, r2, #24
 8000d7a:	d5fc      	bpl.n	8000d76 <HAL_UART_Transmit+0x5a>
        huart->Instance->DR = (*tmp & (uint16_t)0x01FF);
 8000d7c:	880a      	ldrh	r2, [r1, #0]
 8000d7e:	f3c2 0208 	ubfx	r2, r2, #0, #9
 8000d82:	605a      	str	r2, [r3, #4]
        if(huart->Init.Parity == UART_PARITY_NONE)
 8000d84:	6902      	ldr	r2, [r0, #16]
 8000d86:	b90a      	cbnz	r2, 8000d8c <HAL_UART_Transmit+0x70>
          pData +=2U;
 8000d88:	3102      	adds	r1, #2
 8000d8a:	e7de      	b.n	8000d4a <HAL_UART_Transmit+0x2e>
          pData +=1U;
 8000d8c:	3101      	adds	r1, #1
 8000d8e:	e7dc      	b.n	8000d4a <HAL_UART_Transmit+0x2e>
  while((__HAL_UART_GET_FLAG(huart, Flag) ? SET : RESET) == Status);
 8000d90:	681a      	ldr	r2, [r3, #0]
 8000d92:	0612      	lsls	r2, r2, #24
 8000d94:	d5fc      	bpl.n	8000d90 <HAL_UART_Transmit+0x74>
        huart->Instance->DR = (*pData++ & (uint8_t)0xFF);
 8000d96:	f811 2b01 	ldrb.w	r2, [r1], #1
 8000d9a:	605a      	str	r2, [r3, #4]
 8000d9c:	e7d5      	b.n	8000d4a <HAL_UART_Transmit+0x2e>
      return  HAL_ERROR;
 8000d9e:	2001      	movs	r0, #1
 8000da0:	4770      	bx	lr
  }
  else
  {
    return HAL_BUSY;
 8000da2:	2002      	movs	r0, #2
  }
}
 8000da4:	4770      	bx	lr

08000da6 <HAL_UART_Receive>:
  * @param  Size: Amount of data to be received
  * @param  Timeout: Timeout duration
  * @retval HAL status
  */
HAL_StatusTypeDef HAL_UART_Receive(UART_HandleTypeDef *huart, uint8_t *pData, uint16_t Size, uint32_t Timeout)
{
 8000da6:	b510      	push	{r4, lr}
  uint16_t* tmp;
  //uint32_t tickstart = 0U;

  /* Check that a Rx process is not already ongoing */
  if(huart->RxState == HAL_UART_STATE_READY)
 8000da8:	f890 303a 	ldrb.w	r3, [r0, #58]	; 0x3a
 8000dac:	2b20      	cmp	r3, #32
 8000dae:	d144      	bne.n	8000e3a <HAL_UART_Receive+0x94>
  {
    if((pData == NULL ) || (Size == 0))
 8000db0:	2900      	cmp	r1, #0
 8000db2:	d040      	beq.n	8000e36 <HAL_UART_Receive+0x90>
 8000db4:	2a00      	cmp	r2, #0
 8000db6:	d03e      	beq.n	8000e36 <HAL_UART_Receive+0x90>
    {
      return  HAL_ERROR;
    }

    /* Process Locked */
    __HAL_LOCK(huart);
 8000db8:	f890 3038 	ldrb.w	r3, [r0, #56]	; 0x38
 8000dbc:	2b01      	cmp	r3, #1
 8000dbe:	d03c      	beq.n	8000e3a <HAL_UART_Receive+0x94>
 8000dc0:	2301      	movs	r3, #1
 8000dc2:	f880 3038 	strb.w	r3, [r0, #56]	; 0x38

    huart->ErrorCode = HAL_UART_ERROR_NONE;
 8000dc6:	2300      	movs	r3, #0
 8000dc8:	63c3      	str	r3, [r0, #60]	; 0x3c
    huart->RxState = HAL_UART_STATE_BUSY_RX;
 8000dca:	2322      	movs	r3, #34	; 0x22
 8000dcc:	f880 303a 	strb.w	r3, [r0, #58]	; 0x3a

    /* Init tickstart for timeout managment */
    //tickstart = HAL_GetTick();

    huart->RxXferSize = Size;
 8000dd0:	8582      	strh	r2, [r0, #44]	; 0x2c
    huart->RxXferCount = Size;
 8000dd2:	85c2      	strh	r2, [r0, #46]	; 0x2e

    /* Check the remain data to be received */
    while(huart->RxXferCount > 0U)
 8000dd4:	8dc3      	ldrh	r3, [r0, #46]	; 0x2e
 8000dd6:	b29b      	uxth	r3, r3
 8000dd8:	b933      	cbnz	r3, 8000de8 <HAL_UART_Receive+0x42>

      }
    }

    /* At end of Rx process, restore huart->RxState to Ready */
    huart->RxState = HAL_UART_STATE_READY;
 8000dda:	2220      	movs	r2, #32
 8000ddc:	f880 203a 	strb.w	r2, [r0, #58]	; 0x3a

    /* Process Unlocked */
    __HAL_UNLOCK(huart);
 8000de0:	f880 3038 	strb.w	r3, [r0, #56]	; 0x38

    return HAL_OK;
 8000de4:	4618      	mov	r0, r3
  }
  else
  {
    return HAL_BUSY;
  }
}
 8000de6:	bd10      	pop	{r4, pc}
      huart->RxXferCount--;
 8000de8:	8dc3      	ldrh	r3, [r0, #46]	; 0x2e
  while((__HAL_UART_GET_FLAG(huart, Flag) ? SET : RESET) == Status);
 8000dea:	6802      	ldr	r2, [r0, #0]
      huart->RxXferCount--;
 8000dec:	3b01      	subs	r3, #1
 8000dee:	b29b      	uxth	r3, r3
 8000df0:	85c3      	strh	r3, [r0, #46]	; 0x2e
      if(huart->Init.WordLength == UART_WORDLENGTH_9B)
 8000df2:	6883      	ldr	r3, [r0, #8]
 8000df4:	f5b3 5f80 	cmp.w	r3, #4096	; 0x1000
 8000df8:	d111      	bne.n	8000e1e <HAL_UART_Receive+0x78>
  while((__HAL_UART_GET_FLAG(huart, Flag) ? SET : RESET) == Status);
 8000dfa:	6813      	ldr	r3, [r2, #0]
 8000dfc:	069c      	lsls	r4, r3, #26
 8000dfe:	d5fc      	bpl.n	8000dfa <HAL_UART_Receive+0x54>
        if(huart->Init.Parity == UART_PARITY_NONE)
 8000e00:	6903      	ldr	r3, [r0, #16]
          *tmp = (uint16_t)(huart->Instance->DR & (uint16_t)0x01FF);
 8000e02:	6852      	ldr	r2, [r2, #4]
        if(huart->Init.Parity == UART_PARITY_NONE)
 8000e04:	b933      	cbnz	r3, 8000e14 <HAL_UART_Receive+0x6e>
          *tmp = (uint16_t)(huart->Instance->DR & (uint16_t)0x01FF);
 8000e06:	460b      	mov	r3, r1
 8000e08:	f3c2 0208 	ubfx	r2, r2, #0, #9
 8000e0c:	f823 2b02 	strh.w	r2, [r3], #2
{
 8000e10:	4619      	mov	r1, r3
 8000e12:	e7df      	b.n	8000dd4 <HAL_UART_Receive+0x2e>
          *tmp = (uint16_t)(huart->Instance->DR & (uint16_t)0x00FF);
 8000e14:	460b      	mov	r3, r1
 8000e16:	b2d2      	uxtb	r2, r2
 8000e18:	f823 2b01 	strh.w	r2, [r3], #1
          pData +=1U;
 8000e1c:	e7f8      	b.n	8000e10 <HAL_UART_Receive+0x6a>
  while((__HAL_UART_GET_FLAG(huart, Flag) ? SET : RESET) == Status);
 8000e1e:	6813      	ldr	r3, [r2, #0]
 8000e20:	069b      	lsls	r3, r3, #26
 8000e22:	d5fc      	bpl.n	8000e1e <HAL_UART_Receive+0x78>
        if(huart->Init.Parity == UART_PARITY_NONE)
 8000e24:	6904      	ldr	r4, [r0, #16]
          *pData++ = (uint8_t)(huart->Instance->DR & (uint8_t)0x00FF);
 8000e26:	6852      	ldr	r2, [r2, #4]
          pData +=1U;
 8000e28:	1c4b      	adds	r3, r1, #1
        if(huart->Init.Parity == UART_PARITY_NONE)
 8000e2a:	b90c      	cbnz	r4, 8000e30 <HAL_UART_Receive+0x8a>
          *pData++ = (uint8_t)(huart->Instance->DR & (uint8_t)0x007F);
 8000e2c:	700a      	strb	r2, [r1, #0]
 8000e2e:	e7ef      	b.n	8000e10 <HAL_UART_Receive+0x6a>
 8000e30:	f002 027f 	and.w	r2, r2, #127	; 0x7f
 8000e34:	e7fa      	b.n	8000e2c <HAL_UART_Receive+0x86>
      return  HAL_ERROR;
 8000e36:	2001      	movs	r0, #1
 8000e38:	e7d5      	b.n	8000de6 <HAL_UART_Receive+0x40>
    return HAL_BUSY;
 8000e3a:	2002      	movs	r0, #2
 8000e3c:	e7d3      	b.n	8000de6 <HAL_UART_Receive+0x40>

08000e3e <HAL_RNG_MspInit>:
  /* Prevent unused argument(s) compilation warning */
  UNUSED(hrng);
  /* NOTE : This function should not be modified. When the callback is needed,
            function HAL_RNG_MspInit must be implemented in the user file.
   */
}
 8000e3e:	4770      	bx	lr

08000e40 <HAL_RNG_Init>:
{ 
 8000e40:	b510      	push	{r4, lr}
  if(hrng == NULL)
 8000e42:	4604      	mov	r4, r0
 8000e44:	b1a8      	cbz	r0, 8000e72 <HAL_RNG_Init+0x32>
  __HAL_LOCK(hrng);
 8000e46:	7903      	ldrb	r3, [r0, #4]
 8000e48:	2b01      	cmp	r3, #1
 8000e4a:	d014      	beq.n	8000e76 <HAL_RNG_Init+0x36>
  if(hrng->State == HAL_RNG_STATE_RESET)
 8000e4c:	7943      	ldrb	r3, [r0, #5]
 8000e4e:	f003 02ff 	and.w	r2, r3, #255	; 0xff
 8000e52:	b913      	cbnz	r3, 8000e5a <HAL_RNG_Init+0x1a>
    hrng->Lock = HAL_UNLOCKED;
 8000e54:	7102      	strb	r2, [r0, #4]
    HAL_RNG_MspInit(hrng);
 8000e56:	f7ff fff2 	bl	8000e3e <HAL_RNG_MspInit>
  __HAL_RNG_ENABLE(hrng);
 8000e5a:	6822      	ldr	r2, [r4, #0]
  hrng->State = HAL_RNG_STATE_BUSY;
 8000e5c:	2302      	movs	r3, #2
 8000e5e:	7163      	strb	r3, [r4, #5]
  __HAL_RNG_ENABLE(hrng);
 8000e60:	6813      	ldr	r3, [r2, #0]
 8000e62:	f043 0304 	orr.w	r3, r3, #4
 8000e66:	6013      	str	r3, [r2, #0]
  __HAL_UNLOCK(hrng);
 8000e68:	2000      	movs	r0, #0
  hrng->State = HAL_RNG_STATE_READY;
 8000e6a:	2301      	movs	r3, #1
 8000e6c:	7163      	strb	r3, [r4, #5]
  __HAL_UNLOCK(hrng);
 8000e6e:	7120      	strb	r0, [r4, #4]
}
 8000e70:	bd10      	pop	{r4, pc}
    return HAL_ERROR;
 8000e72:	2001      	movs	r0, #1
 8000e74:	e7fc      	b.n	8000e70 <HAL_RNG_Init+0x30>
  __HAL_LOCK(hrng);
 8000e76:	2002      	movs	r0, #2
 8000e78:	e7fa      	b.n	8000e70 <HAL_RNG_Init+0x30>
 8000e7a:	0000      	movs	r0, r0

08000e7c <Reset_Handler>:
 8000e7c:	2100      	movs	r1, #0
 8000e7e:	e003      	b.n	8000e88 <LoopCopyDataInit>

08000e80 <CopyDataInit>:
 8000e80:	4b0b      	ldr	r3, [pc, #44]	; (8000eb0 <LoopForever+0x2>)
 8000e82:	585b      	ldr	r3, [r3, r1]
 8000e84:	5043      	str	r3, [r0, r1]
 8000e86:	3104      	adds	r1, #4

08000e88 <LoopCopyDataInit>:
 8000e88:	480a      	ldr	r0, [pc, #40]	; (8000eb4 <LoopForever+0x6>)
 8000e8a:	4b0b      	ldr	r3, [pc, #44]	; (8000eb8 <LoopForever+0xa>)
 8000e8c:	1842      	adds	r2, r0, r1
 8000e8e:	429a      	cmp	r2, r3
 8000e90:	d3f6      	bcc.n	8000e80 <CopyDataInit>
 8000e92:	4a0a      	ldr	r2, [pc, #40]	; (8000ebc <LoopForever+0xe>)
 8000e94:	e002      	b.n	8000e9c <LoopFillZerobss>

08000e96 <FillZerobss>:
 8000e96:	2300      	movs	r3, #0
 8000e98:	6013      	str	r3, [r2, #0]
 8000e9a:	3204      	adds	r2, #4

08000e9c <LoopFillZerobss>:
 8000e9c:	4b08      	ldr	r3, [pc, #32]	; (8000ec0 <LoopForever+0x12>)
 8000e9e:	429a      	cmp	r2, r3
 8000ea0:	d3f9      	bcc.n	8000e96 <FillZerobss>
 8000ea2:	f3af 8000 	nop.w
 8000ea6:	f7ff f9cf 	bl	8000248 <__libc_init_array>
 8000eaa:	f7ff fa57 	bl	800035c <main>

08000eae <LoopForever>:
 8000eae:	e7fe      	b.n	8000eae <LoopForever>
 8000eb0:	08001020 	.word	0x08001020
 8000eb4:	20000000 	.word	0x20000000
 8000eb8:	20000430 	.word	0x20000430
 8000ebc:	20000430 	.word	0x20000430
 8000ec0:	200004ec 	.word	0x200004ec

08000ec4 <BusFault_Handler>:
 8000ec4:	e7fe      	b.n	8000ec4 <BusFault_Handler>
 8000ec6:	0000      	movs	r0, r0

08000ec8 <register_fini>:
 8000ec8:	4b02      	ldr	r3, [pc, #8]	; (8000ed4 <register_fini+0xc>)
 8000eca:	b113      	cbz	r3, 8000ed2 <register_fini+0xa>
 8000ecc:	4802      	ldr	r0, [pc, #8]	; (8000ed8 <register_fini+0x10>)
 8000ece:	f7ff b99f 	b.w	8000210 <atexit>
 8000ed2:	4770      	bx	lr
 8000ed4:	00000000 	.word	0x00000000
 8000ed8:	0800021d 	.word	0x0800021d

08000edc <_init>:
 8000edc:	b5f8      	push	{r3, r4, r5, r6, r7, lr}
 8000ede:	bf00      	nop
 8000ee0:	bcf8      	pop	{r3, r4, r5, r6, r7}
 8000ee2:	bc08      	pop	{r3}
 8000ee4:	469e      	mov	lr, r3
 8000ee6:	4770      	bx	lr

08000ee8 <_fini>:
 8000ee8:	b5f8      	push	{r3, r4, r5, r6, r7, lr}
 8000eea:	bf00      	nop
 8000eec:	bcf8      	pop	{r3, r4, r5, r6, r7}
 8000eee:	bc08      	pop	{r3}
 8000ef0:	469e      	mov	lr, r3
 8000ef2:	4770      	bx	lr
